   1              	 .syntax unified
   2              	 .cpu cortex-m4
   3              	 .fpu softvfp
   4              	 .eabi_attribute 20,1
   5              	 .eabi_attribute 21,1
   6              	 .eabi_attribute 23,3
   7              	 .eabi_attribute 24,1
   8              	 .eabi_attribute 25,1
   9              	 .eabi_attribute 26,1
  10              	 .eabi_attribute 30,6
  11              	 .eabi_attribute 34,1
  12              	 .eabi_attribute 18,4
  13              	 .thumb
  14              	 .file "Has_Misc.c"
  15              	 .text
  16              	.Ltext0:
  17              	 .cfi_sections .debug_frame
  18              	 .section .text.RTC_Start,"ax",%progbits
  19              	 .align 2
  20              	 .thumb
  21              	 .thumb_func
  23              	RTC_Start:
  24              	.LFB270:
  25              	 .file 1 "C:/Workspaces/DAVE-4.4.2-64Bit/fh-kaernten/DAVE_M2M_1/XMC4500_MTSR_Start_002/Dave/Generated/RTC/rtc.h"
   1:C:/Workspaces/DAVE-4.4.2-64Bit/fh-kaernten/DAVE_M2M_1/XMC4500_MTSR_Start_002/Dave/Generated/RTC\rtc.h **** /**
   2:C:/Workspaces/DAVE-4.4.2-64Bit/fh-kaernten/DAVE_M2M_1/XMC4500_MTSR_Start_002/Dave/Generated/RTC\rtc.h ****  * @file rtc.h
   3:C:/Workspaces/DAVE-4.4.2-64Bit/fh-kaernten/DAVE_M2M_1/XMC4500_MTSR_Start_002/Dave/Generated/RTC\rtc.h ****  * @date 2015-05-18
   4:C:/Workspaces/DAVE-4.4.2-64Bit/fh-kaernten/DAVE_M2M_1/XMC4500_MTSR_Start_002/Dave/Generated/RTC\rtc.h ****  *
   5:C:/Workspaces/DAVE-4.4.2-64Bit/fh-kaernten/DAVE_M2M_1/XMC4500_MTSR_Start_002/Dave/Generated/RTC\rtc.h ****  * NOTE:
   6:C:/Workspaces/DAVE-4.4.2-64Bit/fh-kaernten/DAVE_M2M_1/XMC4500_MTSR_Start_002/Dave/Generated/RTC\rtc.h ****  * This file is generated by DAVE. Any manual modification done to this file will be lost when the 
   7:C:/Workspaces/DAVE-4.4.2-64Bit/fh-kaernten/DAVE_M2M_1/XMC4500_MTSR_Start_002/Dave/Generated/RTC\rtc.h ****  * regenerated.
   8:C:/Workspaces/DAVE-4.4.2-64Bit/fh-kaernten/DAVE_M2M_1/XMC4500_MTSR_Start_002/Dave/Generated/RTC\rtc.h ****  */
   9:C:/Workspaces/DAVE-4.4.2-64Bit/fh-kaernten/DAVE_M2M_1/XMC4500_MTSR_Start_002/Dave/Generated/RTC\rtc.h **** /**
  10:C:/Workspaces/DAVE-4.4.2-64Bit/fh-kaernten/DAVE_M2M_1/XMC4500_MTSR_Start_002/Dave/Generated/RTC\rtc.h ****  * @cond
  11:C:/Workspaces/DAVE-4.4.2-64Bit/fh-kaernten/DAVE_M2M_1/XMC4500_MTSR_Start_002/Dave/Generated/RTC\rtc.h ****  **************************************************************************************************
  12:C:/Workspaces/DAVE-4.4.2-64Bit/fh-kaernten/DAVE_M2M_1/XMC4500_MTSR_Start_002/Dave/Generated/RTC\rtc.h ****  * RTC v4.1.4 Facilitates to generate real time clock and alarm
  13:C:/Workspaces/DAVE-4.4.2-64Bit/fh-kaernten/DAVE_M2M_1/XMC4500_MTSR_Start_002/Dave/Generated/RTC\rtc.h ****  *
  14:C:/Workspaces/DAVE-4.4.2-64Bit/fh-kaernten/DAVE_M2M_1/XMC4500_MTSR_Start_002/Dave/Generated/RTC\rtc.h ****  * Copyright (c) 2015, Infineon Technologies AG
  15:C:/Workspaces/DAVE-4.4.2-64Bit/fh-kaernten/DAVE_M2M_1/XMC4500_MTSR_Start_002/Dave/Generated/RTC\rtc.h ****  * All rights reserved.
  16:C:/Workspaces/DAVE-4.4.2-64Bit/fh-kaernten/DAVE_M2M_1/XMC4500_MTSR_Start_002/Dave/Generated/RTC\rtc.h ****  *
  17:C:/Workspaces/DAVE-4.4.2-64Bit/fh-kaernten/DAVE_M2M_1/XMC4500_MTSR_Start_002/Dave/Generated/RTC\rtc.h ****  * Redistribution and use in source and binary forms, with or without modification,are permitted pr
  18:C:/Workspaces/DAVE-4.4.2-64Bit/fh-kaernten/DAVE_M2M_1/XMC4500_MTSR_Start_002/Dave/Generated/RTC\rtc.h ****  * following conditions are met:
  19:C:/Workspaces/DAVE-4.4.2-64Bit/fh-kaernten/DAVE_M2M_1/XMC4500_MTSR_Start_002/Dave/Generated/RTC\rtc.h ****  *
  20:C:/Workspaces/DAVE-4.4.2-64Bit/fh-kaernten/DAVE_M2M_1/XMC4500_MTSR_Start_002/Dave/Generated/RTC\rtc.h ****  *   Redistributions of source code must retain the above copyright notice, this list of conditions
  21:C:/Workspaces/DAVE-4.4.2-64Bit/fh-kaernten/DAVE_M2M_1/XMC4500_MTSR_Start_002/Dave/Generated/RTC\rtc.h ****  *   disclaimer.
  22:C:/Workspaces/DAVE-4.4.2-64Bit/fh-kaernten/DAVE_M2M_1/XMC4500_MTSR_Start_002/Dave/Generated/RTC\rtc.h ****  *
  23:C:/Workspaces/DAVE-4.4.2-64Bit/fh-kaernten/DAVE_M2M_1/XMC4500_MTSR_Start_002/Dave/Generated/RTC\rtc.h ****  *   Redistributions in binary form must reproduce the above copyright notice, this list of conditi
  24:C:/Workspaces/DAVE-4.4.2-64Bit/fh-kaernten/DAVE_M2M_1/XMC4500_MTSR_Start_002/Dave/Generated/RTC\rtc.h ****  *   following disclaimer in the documentation and/or other materials provided with the distributio
  25:C:/Workspaces/DAVE-4.4.2-64Bit/fh-kaernten/DAVE_M2M_1/XMC4500_MTSR_Start_002/Dave/Generated/RTC\rtc.h ****  *
  26:C:/Workspaces/DAVE-4.4.2-64Bit/fh-kaernten/DAVE_M2M_1/XMC4500_MTSR_Start_002/Dave/Generated/RTC\rtc.h ****  *   Neither the name of the copyright holders nor the names of its contributors may be used to end
  27:C:/Workspaces/DAVE-4.4.2-64Bit/fh-kaernten/DAVE_M2M_1/XMC4500_MTSR_Start_002/Dave/Generated/RTC\rtc.h ****  *   products derived from this software without specific prior written permission.
  28:C:/Workspaces/DAVE-4.4.2-64Bit/fh-kaernten/DAVE_M2M_1/XMC4500_MTSR_Start_002/Dave/Generated/RTC\rtc.h ****  *
  29:C:/Workspaces/DAVE-4.4.2-64Bit/fh-kaernten/DAVE_M2M_1/XMC4500_MTSR_Start_002/Dave/Generated/RTC\rtc.h ****  * THIS SOFTWARE IS PROVIDED BY THE COPYRIGHT HOLDERS AND CONTRIBUTORS "AS IS" AND ANY EXPRESS OR I
  30:C:/Workspaces/DAVE-4.4.2-64Bit/fh-kaernten/DAVE_M2M_1/XMC4500_MTSR_Start_002/Dave/Generated/RTC\rtc.h ****  * INCLUDING, BUT NOT LIMITED TO, THE IMPLIED WARRANTIES OF MERCHANTABILITY AND FITNESS FOR A PARTI
  31:C:/Workspaces/DAVE-4.4.2-64Bit/fh-kaernten/DAVE_M2M_1/XMC4500_MTSR_Start_002/Dave/Generated/RTC\rtc.h ****  * DISCLAIMED. IN NO EVENT SHALL THE COPYRIGHT HOLDER OR CONTRIBUTORS BE LIABLE  FOR ANY DIRECT, IN
  32:C:/Workspaces/DAVE-4.4.2-64Bit/fh-kaernten/DAVE_M2M_1/XMC4500_MTSR_Start_002/Dave/Generated/RTC\rtc.h ****  * SPECIAL, EXEMPLARY, OR CONSEQUENTIAL DAMAGES (INCLUDING, BUT NOT LIMITED TO, PROCUREMENT OF SUBS
  33:C:/Workspaces/DAVE-4.4.2-64Bit/fh-kaernten/DAVE_M2M_1/XMC4500_MTSR_Start_002/Dave/Generated/RTC\rtc.h ****  * SERVICES; LOSS OF USE, DATA, OR PROFITS; OR BUSINESS INTERRUPTION) HOWEVER CAUSED AND ON ANY THE
  34:C:/Workspaces/DAVE-4.4.2-64Bit/fh-kaernten/DAVE_M2M_1/XMC4500_MTSR_Start_002/Dave/Generated/RTC\rtc.h ****  * WHETHER IN CONTRACT, STRICT LIABILITY,OR TORT (INCLUDING NEGLIGENCE OR OTHERWISE) ARISING IN ANY
  35:C:/Workspaces/DAVE-4.4.2-64Bit/fh-kaernten/DAVE_M2M_1/XMC4500_MTSR_Start_002/Dave/Generated/RTC\rtc.h ****  * USE OF THIS SOFTWARE, EVEN IF ADVISED OF THE POSSIBILITY OF SUCH DAMAGE.
  36:C:/Workspaces/DAVE-4.4.2-64Bit/fh-kaernten/DAVE_M2M_1/XMC4500_MTSR_Start_002/Dave/Generated/RTC\rtc.h ****  *
  37:C:/Workspaces/DAVE-4.4.2-64Bit/fh-kaernten/DAVE_M2M_1/XMC4500_MTSR_Start_002/Dave/Generated/RTC\rtc.h ****  * To improve the quality of the software, users are encouraged to share modifications, enhancement
  38:C:/Workspaces/DAVE-4.4.2-64Bit/fh-kaernten/DAVE_M2M_1/XMC4500_MTSR_Start_002/Dave/Generated/RTC\rtc.h ****  * with Infineon Technologies AG (dave@infineon.com).
  39:C:/Workspaces/DAVE-4.4.2-64Bit/fh-kaernten/DAVE_M2M_1/XMC4500_MTSR_Start_002/Dave/Generated/RTC\rtc.h ****  **************************************************************************************************
  40:C:/Workspaces/DAVE-4.4.2-64Bit/fh-kaernten/DAVE_M2M_1/XMC4500_MTSR_Start_002/Dave/Generated/RTC\rtc.h ****  *
  41:C:/Workspaces/DAVE-4.4.2-64Bit/fh-kaernten/DAVE_M2M_1/XMC4500_MTSR_Start_002/Dave/Generated/RTC\rtc.h ****  * Change History
  42:C:/Workspaces/DAVE-4.4.2-64Bit/fh-kaernten/DAVE_M2M_1/XMC4500_MTSR_Start_002/Dave/Generated/RTC\rtc.h ****  * --------------
  43:C:/Workspaces/DAVE-4.4.2-64Bit/fh-kaernten/DAVE_M2M_1/XMC4500_MTSR_Start_002/Dave/Generated/RTC\rtc.h ****  *
  44:C:/Workspaces/DAVE-4.4.2-64Bit/fh-kaernten/DAVE_M2M_1/XMC4500_MTSR_Start_002/Dave/Generated/RTC\rtc.h ****  * 2015-02-16:
  45:C:/Workspaces/DAVE-4.4.2-64Bit/fh-kaernten/DAVE_M2M_1/XMC4500_MTSR_Start_002/Dave/Generated/RTC\rtc.h ****  *     - Initial version<br>
  46:C:/Workspaces/DAVE-4.4.2-64Bit/fh-kaernten/DAVE_M2M_1/XMC4500_MTSR_Start_002/Dave/Generated/RTC\rtc.h ****  *
  47:C:/Workspaces/DAVE-4.4.2-64Bit/fh-kaernten/DAVE_M2M_1/XMC4500_MTSR_Start_002/Dave/Generated/RTC\rtc.h ****  * 2015-05-18:
  48:C:/Workspaces/DAVE-4.4.2-64Bit/fh-kaernten/DAVE_M2M_1/XMC4500_MTSR_Start_002/Dave/Generated/RTC\rtc.h ****  *     - LLD version check added
  49:C:/Workspaces/DAVE-4.4.2-64Bit/fh-kaernten/DAVE_M2M_1/XMC4500_MTSR_Start_002/Dave/Generated/RTC\rtc.h ****  * @endcond
  50:C:/Workspaces/DAVE-4.4.2-64Bit/fh-kaernten/DAVE_M2M_1/XMC4500_MTSR_Start_002/Dave/Generated/RTC\rtc.h ****  *
  51:C:/Workspaces/DAVE-4.4.2-64Bit/fh-kaernten/DAVE_M2M_1/XMC4500_MTSR_Start_002/Dave/Generated/RTC\rtc.h ****  */
  52:C:/Workspaces/DAVE-4.4.2-64Bit/fh-kaernten/DAVE_M2M_1/XMC4500_MTSR_Start_002/Dave/Generated/RTC\rtc.h **** 
  53:C:/Workspaces/DAVE-4.4.2-64Bit/fh-kaernten/DAVE_M2M_1/XMC4500_MTSR_Start_002/Dave/Generated/RTC\rtc.h **** #ifndef RTC_H
  54:C:/Workspaces/DAVE-4.4.2-64Bit/fh-kaernten/DAVE_M2M_1/XMC4500_MTSR_Start_002/Dave/Generated/RTC\rtc.h **** #define RTC_H
  55:C:/Workspaces/DAVE-4.4.2-64Bit/fh-kaernten/DAVE_M2M_1/XMC4500_MTSR_Start_002/Dave/Generated/RTC\rtc.h **** 
  56:C:/Workspaces/DAVE-4.4.2-64Bit/fh-kaernten/DAVE_M2M_1/XMC4500_MTSR_Start_002/Dave/Generated/RTC\rtc.h **** 
  57:C:/Workspaces/DAVE-4.4.2-64Bit/fh-kaernten/DAVE_M2M_1/XMC4500_MTSR_Start_002/Dave/Generated/RTC\rtc.h **** /**************************************************************************************************
  58:C:/Workspaces/DAVE-4.4.2-64Bit/fh-kaernten/DAVE_M2M_1/XMC4500_MTSR_Start_002/Dave/Generated/RTC\rtc.h ****  * HEADER FILES
  59:C:/Workspaces/DAVE-4.4.2-64Bit/fh-kaernten/DAVE_M2M_1/XMC4500_MTSR_Start_002/Dave/Generated/RTC\rtc.h ****  **************************************************************************************************
  60:C:/Workspaces/DAVE-4.4.2-64Bit/fh-kaernten/DAVE_M2M_1/XMC4500_MTSR_Start_002/Dave/Generated/RTC\rtc.h **** #include <xmc_scu.h>
  61:C:/Workspaces/DAVE-4.4.2-64Bit/fh-kaernten/DAVE_M2M_1/XMC4500_MTSR_Start_002/Dave/Generated/RTC\rtc.h **** #include <xmc_rtc.h>
  62:C:/Workspaces/DAVE-4.4.2-64Bit/fh-kaernten/DAVE_M2M_1/XMC4500_MTSR_Start_002/Dave/Generated/RTC\rtc.h **** #include "rtc_conf.h"
  63:C:/Workspaces/DAVE-4.4.2-64Bit/fh-kaernten/DAVE_M2M_1/XMC4500_MTSR_Start_002/Dave/Generated/RTC\rtc.h **** #include <DAVE_Common.h>
  64:C:/Workspaces/DAVE-4.4.2-64Bit/fh-kaernten/DAVE_M2M_1/XMC4500_MTSR_Start_002/Dave/Generated/RTC\rtc.h **** 
  65:C:/Workspaces/DAVE-4.4.2-64Bit/fh-kaernten/DAVE_M2M_1/XMC4500_MTSR_Start_002/Dave/Generated/RTC\rtc.h **** /**************************************************************************************************
  66:C:/Workspaces/DAVE-4.4.2-64Bit/fh-kaernten/DAVE_M2M_1/XMC4500_MTSR_Start_002/Dave/Generated/RTC\rtc.h ****  * MACROS
  67:C:/Workspaces/DAVE-4.4.2-64Bit/fh-kaernten/DAVE_M2M_1/XMC4500_MTSR_Start_002/Dave/Generated/RTC\rtc.h ****  **************************************************************************************************
  68:C:/Workspaces/DAVE-4.4.2-64Bit/fh-kaernten/DAVE_M2M_1/XMC4500_MTSR_Start_002/Dave/Generated/RTC\rtc.h **** #if (!((XMC_LIB_MAJOR_VERSION == 2U) && \
  69:C:/Workspaces/DAVE-4.4.2-64Bit/fh-kaernten/DAVE_M2M_1/XMC4500_MTSR_Start_002/Dave/Generated/RTC\rtc.h ****        (XMC_LIB_MINOR_VERSION >= 0U) && \
  70:C:/Workspaces/DAVE-4.4.2-64Bit/fh-kaernten/DAVE_M2M_1/XMC4500_MTSR_Start_002/Dave/Generated/RTC\rtc.h ****        (XMC_LIB_PATCH_VERSION >= 0U)))
  71:C:/Workspaces/DAVE-4.4.2-64Bit/fh-kaernten/DAVE_M2M_1/XMC4500_MTSR_Start_002/Dave/Generated/RTC\rtc.h **** #error "RTC APP requires XMC Peripheral Library v2.0.0 or higher"
  72:C:/Workspaces/DAVE-4.4.2-64Bit/fh-kaernten/DAVE_M2M_1/XMC4500_MTSR_Start_002/Dave/Generated/RTC\rtc.h **** #endif
  73:C:/Workspaces/DAVE-4.4.2-64Bit/fh-kaernten/DAVE_M2M_1/XMC4500_MTSR_Start_002/Dave/Generated/RTC\rtc.h **** 
  74:C:/Workspaces/DAVE-4.4.2-64Bit/fh-kaernten/DAVE_M2M_1/XMC4500_MTSR_Start_002/Dave/Generated/RTC\rtc.h **** /**************************************************************************************************
  75:C:/Workspaces/DAVE-4.4.2-64Bit/fh-kaernten/DAVE_M2M_1/XMC4500_MTSR_Start_002/Dave/Generated/RTC\rtc.h ****  * ENUMS
  76:C:/Workspaces/DAVE-4.4.2-64Bit/fh-kaernten/DAVE_M2M_1/XMC4500_MTSR_Start_002/Dave/Generated/RTC\rtc.h ****  **************************************************************************************************
  77:C:/Workspaces/DAVE-4.4.2-64Bit/fh-kaernten/DAVE_M2M_1/XMC4500_MTSR_Start_002/Dave/Generated/RTC\rtc.h **** /**
  78:C:/Workspaces/DAVE-4.4.2-64Bit/fh-kaernten/DAVE_M2M_1/XMC4500_MTSR_Start_002/Dave/Generated/RTC\rtc.h ****  * @ingroup RTC_enumerations
  79:C:/Workspaces/DAVE-4.4.2-64Bit/fh-kaernten/DAVE_M2M_1/XMC4500_MTSR_Start_002/Dave/Generated/RTC\rtc.h ****  * @{
  80:C:/Workspaces/DAVE-4.4.2-64Bit/fh-kaernten/DAVE_M2M_1/XMC4500_MTSR_Start_002/Dave/Generated/RTC\rtc.h ****  */
  81:C:/Workspaces/DAVE-4.4.2-64Bit/fh-kaernten/DAVE_M2M_1/XMC4500_MTSR_Start_002/Dave/Generated/RTC\rtc.h **** 
  82:C:/Workspaces/DAVE-4.4.2-64Bit/fh-kaernten/DAVE_M2M_1/XMC4500_MTSR_Start_002/Dave/Generated/RTC\rtc.h **** typedef enum RTC_STATUS
  83:C:/Workspaces/DAVE-4.4.2-64Bit/fh-kaernten/DAVE_M2M_1/XMC4500_MTSR_Start_002/Dave/Generated/RTC\rtc.h **** {
  84:C:/Workspaces/DAVE-4.4.2-64Bit/fh-kaernten/DAVE_M2M_1/XMC4500_MTSR_Start_002/Dave/Generated/RTC\rtc.h ****   RTC_STATUS_SUCCESS = 0U,    /**< APP initialization status success */
  85:C:/Workspaces/DAVE-4.4.2-64Bit/fh-kaernten/DAVE_M2M_1/XMC4500_MTSR_Start_002/Dave/Generated/RTC\rtc.h ****   RTC_STATUS_FAILURE = 1U     /**< APP initialization status failure */
  86:C:/Workspaces/DAVE-4.4.2-64Bit/fh-kaernten/DAVE_M2M_1/XMC4500_MTSR_Start_002/Dave/Generated/RTC\rtc.h **** } RTC_STATUS_t;
  87:C:/Workspaces/DAVE-4.4.2-64Bit/fh-kaernten/DAVE_M2M_1/XMC4500_MTSR_Start_002/Dave/Generated/RTC\rtc.h **** 
  88:C:/Workspaces/DAVE-4.4.2-64Bit/fh-kaernten/DAVE_M2M_1/XMC4500_MTSR_Start_002/Dave/Generated/RTC\rtc.h **** /**
  89:C:/Workspaces/DAVE-4.4.2-64Bit/fh-kaernten/DAVE_M2M_1/XMC4500_MTSR_Start_002/Dave/Generated/RTC\rtc.h ****  * This enumeration defines RTC Module Enable and Disable values.
  90:C:/Workspaces/DAVE-4.4.2-64Bit/fh-kaernten/DAVE_M2M_1/XMC4500_MTSR_Start_002/Dave/Generated/RTC\rtc.h ****  */
  91:C:/Workspaces/DAVE-4.4.2-64Bit/fh-kaernten/DAVE_M2M_1/XMC4500_MTSR_Start_002/Dave/Generated/RTC\rtc.h **** 
  92:C:/Workspaces/DAVE-4.4.2-64Bit/fh-kaernten/DAVE_M2M_1/XMC4500_MTSR_Start_002/Dave/Generated/RTC\rtc.h **** typedef enum RTC_START
  93:C:/Workspaces/DAVE-4.4.2-64Bit/fh-kaernten/DAVE_M2M_1/XMC4500_MTSR_Start_002/Dave/Generated/RTC\rtc.h **** {
  94:C:/Workspaces/DAVE-4.4.2-64Bit/fh-kaernten/DAVE_M2M_1/XMC4500_MTSR_Start_002/Dave/Generated/RTC\rtc.h ****   RTC_START_DISABLE = 0x0U, /**< Disable RTC start */
  95:C:/Workspaces/DAVE-4.4.2-64Bit/fh-kaernten/DAVE_M2M_1/XMC4500_MTSR_Start_002/Dave/Generated/RTC\rtc.h ****   RTC_START_ENABLE = 0x1U   /**< Enable RTC start */
  96:C:/Workspaces/DAVE-4.4.2-64Bit/fh-kaernten/DAVE_M2M_1/XMC4500_MTSR_Start_002/Dave/Generated/RTC\rtc.h **** } RTC_START_t;
  97:C:/Workspaces/DAVE-4.4.2-64Bit/fh-kaernten/DAVE_M2M_1/XMC4500_MTSR_Start_002/Dave/Generated/RTC\rtc.h **** 
  98:C:/Workspaces/DAVE-4.4.2-64Bit/fh-kaernten/DAVE_M2M_1/XMC4500_MTSR_Start_002/Dave/Generated/RTC\rtc.h **** 
  99:C:/Workspaces/DAVE-4.4.2-64Bit/fh-kaernten/DAVE_M2M_1/XMC4500_MTSR_Start_002/Dave/Generated/RTC\rtc.h **** /**
 100:C:/Workspaces/DAVE-4.4.2-64Bit/fh-kaernten/DAVE_M2M_1/XMC4500_MTSR_Start_002/Dave/Generated/RTC\rtc.h ****  * This enumeration defines RTC Module Interrupt Related Events Enable and
 101:C:/Workspaces/DAVE-4.4.2-64Bit/fh-kaernten/DAVE_M2M_1/XMC4500_MTSR_Start_002/Dave/Generated/RTC\rtc.h ****  * Disable values.
 102:C:/Workspaces/DAVE-4.4.2-64Bit/fh-kaernten/DAVE_M2M_1/XMC4500_MTSR_Start_002/Dave/Generated/RTC\rtc.h ****  */
 103:C:/Workspaces/DAVE-4.4.2-64Bit/fh-kaernten/DAVE_M2M_1/XMC4500_MTSR_Start_002/Dave/Generated/RTC\rtc.h **** 
 104:C:/Workspaces/DAVE-4.4.2-64Bit/fh-kaernten/DAVE_M2M_1/XMC4500_MTSR_Start_002/Dave/Generated/RTC\rtc.h **** typedef enum RTC_INT
 105:C:/Workspaces/DAVE-4.4.2-64Bit/fh-kaernten/DAVE_M2M_1/XMC4500_MTSR_Start_002/Dave/Generated/RTC\rtc.h **** {
 106:C:/Workspaces/DAVE-4.4.2-64Bit/fh-kaernten/DAVE_M2M_1/XMC4500_MTSR_Start_002/Dave/Generated/RTC\rtc.h ****   RTC_INT_EVENT_TRIG_SCU_TIMER_ENABLE = 0x0U,   /**< Event Trigger to SCU for Timer Enable */
 107:C:/Workspaces/DAVE-4.4.2-64Bit/fh-kaernten/DAVE_M2M_1/XMC4500_MTSR_Start_002/Dave/Generated/RTC\rtc.h ****   RTC_INT_EVENT_TRIG_NMI_TIMER_ENABLE = 0x1U,   /**< Event Trigger to NMI for Timer Enable */
 108:C:/Workspaces/DAVE-4.4.2-64Bit/fh-kaernten/DAVE_M2M_1/XMC4500_MTSR_Start_002/Dave/Generated/RTC\rtc.h ****   RTC_INT_EVENT_TRIG_SCU_ALARM_ENABLE = 0x0U,   /**< Event Trigger to SCU for Alarm Enable */
 109:C:/Workspaces/DAVE-4.4.2-64Bit/fh-kaernten/DAVE_M2M_1/XMC4500_MTSR_Start_002/Dave/Generated/RTC\rtc.h ****   RTC_INT_EVENT_TRIG_NMI_ALARM_ENABLE = 0x1U,   /**< Event Trigger to NMI for Alarm Enable */
 110:C:/Workspaces/DAVE-4.4.2-64Bit/fh-kaernten/DAVE_M2M_1/XMC4500_MTSR_Start_002/Dave/Generated/RTC\rtc.h ****   RTC_INT_PERIODIC_SEC_DISABLE = 0x0U,          /**< Timer Periodic Seconds Interrupt Disable */
 111:C:/Workspaces/DAVE-4.4.2-64Bit/fh-kaernten/DAVE_M2M_1/XMC4500_MTSR_Start_002/Dave/Generated/RTC\rtc.h ****   RTC_INT_PERIODIC_SEC_ENABLE = 0x1U,           /**< Timer Periodic Seconds Interrupt Enable */
 112:C:/Workspaces/DAVE-4.4.2-64Bit/fh-kaernten/DAVE_M2M_1/XMC4500_MTSR_Start_002/Dave/Generated/RTC\rtc.h ****   RTC_INT_PERIODIC_MIN_DISABLE = 0x0U,          /**< Timer Periodic Minutes Interrupt Disable */
 113:C:/Workspaces/DAVE-4.4.2-64Bit/fh-kaernten/DAVE_M2M_1/XMC4500_MTSR_Start_002/Dave/Generated/RTC\rtc.h ****   RTC_INT_PERIODIC_MIN_ENABLE = 0x1U,           /**< Timer Periodic Minutes Interrupt Enable */
 114:C:/Workspaces/DAVE-4.4.2-64Bit/fh-kaernten/DAVE_M2M_1/XMC4500_MTSR_Start_002/Dave/Generated/RTC\rtc.h ****   RTC_INT_PERIODIC_HOUR_DISABLE = 0x0U,         /**< Timer Periodic Hours Interrupt Disable */
 115:C:/Workspaces/DAVE-4.4.2-64Bit/fh-kaernten/DAVE_M2M_1/XMC4500_MTSR_Start_002/Dave/Generated/RTC\rtc.h ****   RTC_INT_PERIODIC_HOUR_ENABLE = 0x1U,          /**< Timer Periodic Hours Interrupt Enable */
 116:C:/Workspaces/DAVE-4.4.2-64Bit/fh-kaernten/DAVE_M2M_1/XMC4500_MTSR_Start_002/Dave/Generated/RTC\rtc.h ****   RTC_INT_PERIODIC_DAY_DISABLE = 0x0U,          /**< Timer Periodic Days Interrupt Disable */
 117:C:/Workspaces/DAVE-4.4.2-64Bit/fh-kaernten/DAVE_M2M_1/XMC4500_MTSR_Start_002/Dave/Generated/RTC\rtc.h ****   RTC_INT_PERIODIC_DAY_ENABLE = 0x1U,           /**< Timer Periodic Days Interrupt Enable */
 118:C:/Workspaces/DAVE-4.4.2-64Bit/fh-kaernten/DAVE_M2M_1/XMC4500_MTSR_Start_002/Dave/Generated/RTC\rtc.h ****   RTC_INT_PERIODIC_MONTH_DISABLE = 0x0U,        /**< Timer Periodic Month Interrupt Disable */
 119:C:/Workspaces/DAVE-4.4.2-64Bit/fh-kaernten/DAVE_M2M_1/XMC4500_MTSR_Start_002/Dave/Generated/RTC\rtc.h ****   RTC_INT_PERIODIC_MONTH_ENABLE = 0x1U,         /**< Timer Periodic Month Interrupt Enable */
 120:C:/Workspaces/DAVE-4.4.2-64Bit/fh-kaernten/DAVE_M2M_1/XMC4500_MTSR_Start_002/Dave/Generated/RTC\rtc.h ****   RTC_INT_PERIODIC_YEAR_DISABLE = 0x0U,         /**< Timer Periodic Years Interrupt Disable */
 121:C:/Workspaces/DAVE-4.4.2-64Bit/fh-kaernten/DAVE_M2M_1/XMC4500_MTSR_Start_002/Dave/Generated/RTC\rtc.h ****   RTC_INT_PERIODIC_YEAR_ENABLE = 0x1U,          /**< Timer Periodic Years Interrupt Enable */
 122:C:/Workspaces/DAVE-4.4.2-64Bit/fh-kaernten/DAVE_M2M_1/XMC4500_MTSR_Start_002/Dave/Generated/RTC\rtc.h ****   RTC_INT_ALARM_DISABLE = 0x0U,                 /**< Alarm Interrupt Disable */
 123:C:/Workspaces/DAVE-4.4.2-64Bit/fh-kaernten/DAVE_M2M_1/XMC4500_MTSR_Start_002/Dave/Generated/RTC\rtc.h ****   RTC_INT_ALARM_ENABLE = 0x1U                   /**< Alarm Interrupt Enable */
 124:C:/Workspaces/DAVE-4.4.2-64Bit/fh-kaernten/DAVE_M2M_1/XMC4500_MTSR_Start_002/Dave/Generated/RTC\rtc.h **** } RTC_INT_t;
 125:C:/Workspaces/DAVE-4.4.2-64Bit/fh-kaernten/DAVE_M2M_1/XMC4500_MTSR_Start_002/Dave/Generated/RTC\rtc.h **** 
 126:C:/Workspaces/DAVE-4.4.2-64Bit/fh-kaernten/DAVE_M2M_1/XMC4500_MTSR_Start_002/Dave/Generated/RTC\rtc.h **** /**************************************************************************************************
 127:C:/Workspaces/DAVE-4.4.2-64Bit/fh-kaernten/DAVE_M2M_1/XMC4500_MTSR_Start_002/Dave/Generated/RTC\rtc.h **** * DATA STRUCTURES
 128:C:/Workspaces/DAVE-4.4.2-64Bit/fh-kaernten/DAVE_M2M_1/XMC4500_MTSR_Start_002/Dave/Generated/RTC\rtc.h **** ***************************************************************************************************
 129:C:/Workspaces/DAVE-4.4.2-64Bit/fh-kaernten/DAVE_M2M_1/XMC4500_MTSR_Start_002/Dave/Generated/RTC\rtc.h **** /**
 130:C:/Workspaces/DAVE-4.4.2-64Bit/fh-kaernten/DAVE_M2M_1/XMC4500_MTSR_Start_002/Dave/Generated/RTC\rtc.h ****   * @ingroup RTC_datastructures
 131:C:/Workspaces/DAVE-4.4.2-64Bit/fh-kaernten/DAVE_M2M_1/XMC4500_MTSR_Start_002/Dave/Generated/RTC\rtc.h ****   * @{
 132:C:/Workspaces/DAVE-4.4.2-64Bit/fh-kaernten/DAVE_M2M_1/XMC4500_MTSR_Start_002/Dave/Generated/RTC\rtc.h ****   */
 133:C:/Workspaces/DAVE-4.4.2-64Bit/fh-kaernten/DAVE_M2M_1/XMC4500_MTSR_Start_002/Dave/Generated/RTC\rtc.h **** 
 134:C:/Workspaces/DAVE-4.4.2-64Bit/fh-kaernten/DAVE_M2M_1/XMC4500_MTSR_Start_002/Dave/Generated/RTC\rtc.h **** /**
 135:C:/Workspaces/DAVE-4.4.2-64Bit/fh-kaernten/DAVE_M2M_1/XMC4500_MTSR_Start_002/Dave/Generated/RTC\rtc.h ****  * RTC APP Handle structure. Stores configured parameters in APP UI.
 136:C:/Workspaces/DAVE-4.4.2-64Bit/fh-kaernten/DAVE_M2M_1/XMC4500_MTSR_Start_002/Dave/Generated/RTC\rtc.h ****  */
 137:C:/Workspaces/DAVE-4.4.2-64Bit/fh-kaernten/DAVE_M2M_1/XMC4500_MTSR_Start_002/Dave/Generated/RTC\rtc.h **** 
 138:C:/Workspaces/DAVE-4.4.2-64Bit/fh-kaernten/DAVE_M2M_1/XMC4500_MTSR_Start_002/Dave/Generated/RTC\rtc.h **** typedef struct RTC_CONFIG
 139:C:/Workspaces/DAVE-4.4.2-64Bit/fh-kaernten/DAVE_M2M_1/XMC4500_MTSR_Start_002/Dave/Generated/RTC\rtc.h **** {
 140:C:/Workspaces/DAVE-4.4.2-64Bit/fh-kaernten/DAVE_M2M_1/XMC4500_MTSR_Start_002/Dave/Generated/RTC\rtc.h ****  RTC_START_t start;                           /**< rtc start */
 141:C:/Workspaces/DAVE-4.4.2-64Bit/fh-kaernten/DAVE_M2M_1/XMC4500_MTSR_Start_002/Dave/Generated/RTC\rtc.h **** 
 142:C:/Workspaces/DAVE-4.4.2-64Bit/fh-kaernten/DAVE_M2M_1/XMC4500_MTSR_Start_002/Dave/Generated/RTC\rtc.h ****  RTC_INT_t eventtrig_timer;                   /**< event trigger for timer */
 143:C:/Workspaces/DAVE-4.4.2-64Bit/fh-kaernten/DAVE_M2M_1/XMC4500_MTSR_Start_002/Dave/Generated/RTC\rtc.h ****  RTC_INT_t periodic_sec_intr;                 /**< periodic seconds interrupt */
 144:C:/Workspaces/DAVE-4.4.2-64Bit/fh-kaernten/DAVE_M2M_1/XMC4500_MTSR_Start_002/Dave/Generated/RTC\rtc.h ****  RTC_INT_t periodic_min_intr;                 /**< periodic minutes interrupt */
 145:C:/Workspaces/DAVE-4.4.2-64Bit/fh-kaernten/DAVE_M2M_1/XMC4500_MTSR_Start_002/Dave/Generated/RTC\rtc.h ****  RTC_INT_t periodic_hour_intr;                /**< periodic hours interrupt */
 146:C:/Workspaces/DAVE-4.4.2-64Bit/fh-kaernten/DAVE_M2M_1/XMC4500_MTSR_Start_002/Dave/Generated/RTC\rtc.h ****  RTC_INT_t periodic_day_intr;                 /**< periodic days interrupt */
 147:C:/Workspaces/DAVE-4.4.2-64Bit/fh-kaernten/DAVE_M2M_1/XMC4500_MTSR_Start_002/Dave/Generated/RTC\rtc.h ****  RTC_INT_t periodic_month_intr;               /**< periodic months interrupt */
 148:C:/Workspaces/DAVE-4.4.2-64Bit/fh-kaernten/DAVE_M2M_1/XMC4500_MTSR_Start_002/Dave/Generated/RTC\rtc.h ****  RTC_INT_t periodic_year_intr;                /**< periodic years interrupt */
 149:C:/Workspaces/DAVE-4.4.2-64Bit/fh-kaernten/DAVE_M2M_1/XMC4500_MTSR_Start_002/Dave/Generated/RTC\rtc.h **** 
 150:C:/Workspaces/DAVE-4.4.2-64Bit/fh-kaernten/DAVE_M2M_1/XMC4500_MTSR_Start_002/Dave/Generated/RTC\rtc.h ****  RTC_INT_t alarm_intr;                        /**< alarm interrupt */
 151:C:/Workspaces/DAVE-4.4.2-64Bit/fh-kaernten/DAVE_M2M_1/XMC4500_MTSR_Start_002/Dave/Generated/RTC\rtc.h **** 
 152:C:/Workspaces/DAVE-4.4.2-64Bit/fh-kaernten/DAVE_M2M_1/XMC4500_MTSR_Start_002/Dave/Generated/RTC\rtc.h ****  RTC_INT_t eventtrig_alarm;                   /**< event trigger for alarm */
 153:C:/Workspaces/DAVE-4.4.2-64Bit/fh-kaernten/DAVE_M2M_1/XMC4500_MTSR_Start_002/Dave/Generated/RTC\rtc.h **** 
 154:C:/Workspaces/DAVE-4.4.2-64Bit/fh-kaernten/DAVE_M2M_1/XMC4500_MTSR_Start_002/Dave/Generated/RTC\rtc.h **** #if ((UC_FAMILY == XMC4) && (RTC_INTERRUPT_ENABLED == 1))
 155:C:/Workspaces/DAVE-4.4.2-64Bit/fh-kaernten/DAVE_M2M_1/XMC4500_MTSR_Start_002/Dave/Generated/RTC\rtc.h ****  GLOBAL_SCU_XMC4_EVENT_HANDLER_t pi_listener;            /**< periodic interrupt listener */
 156:C:/Workspaces/DAVE-4.4.2-64Bit/fh-kaernten/DAVE_M2M_1/XMC4500_MTSR_Start_002/Dave/Generated/RTC\rtc.h ****  GLOBAL_SCU_XMC4_EVENT_HANDLER_t ai_listener;            /**< alarm interrupt listener */
 157:C:/Workspaces/DAVE-4.4.2-64Bit/fh-kaernten/DAVE_M2M_1/XMC4500_MTSR_Start_002/Dave/Generated/RTC\rtc.h **** #endif
 158:C:/Workspaces/DAVE-4.4.2-64Bit/fh-kaernten/DAVE_M2M_1/XMC4500_MTSR_Start_002/Dave/Generated/RTC\rtc.h **** 
 159:C:/Workspaces/DAVE-4.4.2-64Bit/fh-kaernten/DAVE_M2M_1/XMC4500_MTSR_Start_002/Dave/Generated/RTC\rtc.h **** #if ((UC_FAMILY == XMC1) && (RTC_INTERRUPT_ENABLED == 1))
 160:C:/Workspaces/DAVE-4.4.2-64Bit/fh-kaernten/DAVE_M2M_1/XMC4500_MTSR_Start_002/Dave/Generated/RTC\rtc.h ****  GLOBAL_SCU_XMC1_EVENT_HANDLER_t pi_listener;            /**< periodic interrupt listener */
 161:C:/Workspaces/DAVE-4.4.2-64Bit/fh-kaernten/DAVE_M2M_1/XMC4500_MTSR_Start_002/Dave/Generated/RTC\rtc.h ****  GLOBAL_SCU_XMC1_EVENT_HANDLER_t ai_listener;            /**< alarm interrupt listener */
 162:C:/Workspaces/DAVE-4.4.2-64Bit/fh-kaernten/DAVE_M2M_1/XMC4500_MTSR_Start_002/Dave/Generated/RTC\rtc.h **** #endif
 163:C:/Workspaces/DAVE-4.4.2-64Bit/fh-kaernten/DAVE_M2M_1/XMC4500_MTSR_Start_002/Dave/Generated/RTC\rtc.h **** } RTC_CONFIG_t;
 164:C:/Workspaces/DAVE-4.4.2-64Bit/fh-kaernten/DAVE_M2M_1/XMC4500_MTSR_Start_002/Dave/Generated/RTC\rtc.h **** 
 165:C:/Workspaces/DAVE-4.4.2-64Bit/fh-kaernten/DAVE_M2M_1/XMC4500_MTSR_Start_002/Dave/Generated/RTC\rtc.h **** /**
 166:C:/Workspaces/DAVE-4.4.2-64Bit/fh-kaernten/DAVE_M2M_1/XMC4500_MTSR_Start_002/Dave/Generated/RTC\rtc.h ****  * Runtime RTC handler.
 167:C:/Workspaces/DAVE-4.4.2-64Bit/fh-kaernten/DAVE_M2M_1/XMC4500_MTSR_Start_002/Dave/Generated/RTC\rtc.h ****  */
 168:C:/Workspaces/DAVE-4.4.2-64Bit/fh-kaernten/DAVE_M2M_1/XMC4500_MTSR_Start_002/Dave/Generated/RTC\rtc.h **** typedef struct RealTimeClock
 169:C:/Workspaces/DAVE-4.4.2-64Bit/fh-kaernten/DAVE_M2M_1/XMC4500_MTSR_Start_002/Dave/Generated/RTC\rtc.h **** {
 170:C:/Workspaces/DAVE-4.4.2-64Bit/fh-kaernten/DAVE_M2M_1/XMC4500_MTSR_Start_002/Dave/Generated/RTC\rtc.h ****   const XMC_RTC_CONFIG_t *const time_alarm_config; /** Pointer to RTC LLD configuration data */
 171:C:/Workspaces/DAVE-4.4.2-64Bit/fh-kaernten/DAVE_M2M_1/XMC4500_MTSR_Start_002/Dave/Generated/RTC\rtc.h ****   const RTC_CONFIG_t *const config;                /** Pointer to configuration data */
 172:C:/Workspaces/DAVE-4.4.2-64Bit/fh-kaernten/DAVE_M2M_1/XMC4500_MTSR_Start_002/Dave/Generated/RTC\rtc.h ****   bool initialized;                                /** status for initialized or not */
 173:C:/Workspaces/DAVE-4.4.2-64Bit/fh-kaernten/DAVE_M2M_1/XMC4500_MTSR_Start_002/Dave/Generated/RTC\rtc.h **** } RTC_t;
 174:C:/Workspaces/DAVE-4.4.2-64Bit/fh-kaernten/DAVE_M2M_1/XMC4500_MTSR_Start_002/Dave/Generated/RTC\rtc.h **** /**
 175:C:/Workspaces/DAVE-4.4.2-64Bit/fh-kaernten/DAVE_M2M_1/XMC4500_MTSR_Start_002/Dave/Generated/RTC\rtc.h ****  *@}
 176:C:/Workspaces/DAVE-4.4.2-64Bit/fh-kaernten/DAVE_M2M_1/XMC4500_MTSR_Start_002/Dave/Generated/RTC\rtc.h ****  */
 177:C:/Workspaces/DAVE-4.4.2-64Bit/fh-kaernten/DAVE_M2M_1/XMC4500_MTSR_Start_002/Dave/Generated/RTC\rtc.h **** 
 178:C:/Workspaces/DAVE-4.4.2-64Bit/fh-kaernten/DAVE_M2M_1/XMC4500_MTSR_Start_002/Dave/Generated/RTC\rtc.h **** #ifdef __cplusplus
 179:C:/Workspaces/DAVE-4.4.2-64Bit/fh-kaernten/DAVE_M2M_1/XMC4500_MTSR_Start_002/Dave/Generated/RTC\rtc.h **** extern "C" {
 180:C:/Workspaces/DAVE-4.4.2-64Bit/fh-kaernten/DAVE_M2M_1/XMC4500_MTSR_Start_002/Dave/Generated/RTC\rtc.h **** #endif
 181:C:/Workspaces/DAVE-4.4.2-64Bit/fh-kaernten/DAVE_M2M_1/XMC4500_MTSR_Start_002/Dave/Generated/RTC\rtc.h **** /**************************************************************************************************
 182:C:/Workspaces/DAVE-4.4.2-64Bit/fh-kaernten/DAVE_M2M_1/XMC4500_MTSR_Start_002/Dave/Generated/RTC\rtc.h ****  * API PROTOTYPES
 183:C:/Workspaces/DAVE-4.4.2-64Bit/fh-kaernten/DAVE_M2M_1/XMC4500_MTSR_Start_002/Dave/Generated/RTC\rtc.h **** ***************************************************************************************************
 184:C:/Workspaces/DAVE-4.4.2-64Bit/fh-kaernten/DAVE_M2M_1/XMC4500_MTSR_Start_002/Dave/Generated/RTC\rtc.h **** 
 185:C:/Workspaces/DAVE-4.4.2-64Bit/fh-kaernten/DAVE_M2M_1/XMC4500_MTSR_Start_002/Dave/Generated/RTC\rtc.h **** /**
 186:C:/Workspaces/DAVE-4.4.2-64Bit/fh-kaernten/DAVE_M2M_1/XMC4500_MTSR_Start_002/Dave/Generated/RTC\rtc.h ****  * @ingroup RTC_apidoc
 187:C:/Workspaces/DAVE-4.4.2-64Bit/fh-kaernten/DAVE_M2M_1/XMC4500_MTSR_Start_002/Dave/Generated/RTC\rtc.h ****  * @{
 188:C:/Workspaces/DAVE-4.4.2-64Bit/fh-kaernten/DAVE_M2M_1/XMC4500_MTSR_Start_002/Dave/Generated/RTC\rtc.h ****  */
 189:C:/Workspaces/DAVE-4.4.2-64Bit/fh-kaernten/DAVE_M2M_1/XMC4500_MTSR_Start_002/Dave/Generated/RTC\rtc.h **** 
 190:C:/Workspaces/DAVE-4.4.2-64Bit/fh-kaernten/DAVE_M2M_1/XMC4500_MTSR_Start_002/Dave/Generated/RTC\rtc.h **** /**
 191:C:/Workspaces/DAVE-4.4.2-64Bit/fh-kaernten/DAVE_M2M_1/XMC4500_MTSR_Start_002/Dave/Generated/RTC\rtc.h ****  * @brief Get RTC APP version.
 192:C:/Workspaces/DAVE-4.4.2-64Bit/fh-kaernten/DAVE_M2M_1/XMC4500_MTSR_Start_002/Dave/Generated/RTC\rtc.h ****  * @return @ref DAVE_APP_VERSION_t APP version information (major, minor and patch number)
 193:C:/Workspaces/DAVE-4.4.2-64Bit/fh-kaernten/DAVE_M2M_1/XMC4500_MTSR_Start_002/Dave/Generated/RTC\rtc.h ****  *
 194:C:/Workspaces/DAVE-4.4.2-64Bit/fh-kaernten/DAVE_M2M_1/XMC4500_MTSR_Start_002/Dave/Generated/RTC\rtc.h ****  * \par<b>Description: </b><br>
 195:C:/Workspaces/DAVE-4.4.2-64Bit/fh-kaernten/DAVE_M2M_1/XMC4500_MTSR_Start_002/Dave/Generated/RTC\rtc.h ****  * The function can be used to check application software compatibility with a
 196:C:/Workspaces/DAVE-4.4.2-64Bit/fh-kaernten/DAVE_M2M_1/XMC4500_MTSR_Start_002/Dave/Generated/RTC\rtc.h ****  * specific version of the APP.
 197:C:/Workspaces/DAVE-4.4.2-64Bit/fh-kaernten/DAVE_M2M_1/XMC4500_MTSR_Start_002/Dave/Generated/RTC\rtc.h ****  *
 198:C:/Workspaces/DAVE-4.4.2-64Bit/fh-kaernten/DAVE_M2M_1/XMC4500_MTSR_Start_002/Dave/Generated/RTC\rtc.h ****  * @code
 199:C:/Workspaces/DAVE-4.4.2-64Bit/fh-kaernten/DAVE_M2M_1/XMC4500_MTSR_Start_002/Dave/Generated/RTC\rtc.h ****  *  #include <DAVE.h>
 200:C:/Workspaces/DAVE-4.4.2-64Bit/fh-kaernten/DAVE_M2M_1/XMC4500_MTSR_Start_002/Dave/Generated/RTC\rtc.h ****  *  #include <DAVE_common.h>
 201:C:/Workspaces/DAVE-4.4.2-64Bit/fh-kaernten/DAVE_M2M_1/XMC4500_MTSR_Start_002/Dave/Generated/RTC\rtc.h ****  *  int main(void)
 202:C:/Workspaces/DAVE-4.4.2-64Bit/fh-kaernten/DAVE_M2M_1/XMC4500_MTSR_Start_002/Dave/Generated/RTC\rtc.h ****  *  {
 203:C:/Workspaces/DAVE-4.4.2-64Bit/fh-kaernten/DAVE_M2M_1/XMC4500_MTSR_Start_002/Dave/Generated/RTC\rtc.h ****  *    DAVE_APP_VERSION_t version;
 204:C:/Workspaces/DAVE-4.4.2-64Bit/fh-kaernten/DAVE_M2M_1/XMC4500_MTSR_Start_002/Dave/Generated/RTC\rtc.h ****  *    DAVE_Init();
 205:C:/Workspaces/DAVE-4.4.2-64Bit/fh-kaernten/DAVE_M2M_1/XMC4500_MTSR_Start_002/Dave/Generated/RTC\rtc.h ****  *    version = RTC_GetAppVersion();
 206:C:/Workspaces/DAVE-4.4.2-64Bit/fh-kaernten/DAVE_M2M_1/XMC4500_MTSR_Start_002/Dave/Generated/RTC\rtc.h ****  *    if(version.major != 4U)
 207:C:/Workspaces/DAVE-4.4.2-64Bit/fh-kaernten/DAVE_M2M_1/XMC4500_MTSR_Start_002/Dave/Generated/RTC\rtc.h ****  *    {
 208:C:/Workspaces/DAVE-4.4.2-64Bit/fh-kaernten/DAVE_M2M_1/XMC4500_MTSR_Start_002/Dave/Generated/RTC\rtc.h ****  *    }
 209:C:/Workspaces/DAVE-4.4.2-64Bit/fh-kaernten/DAVE_M2M_1/XMC4500_MTSR_Start_002/Dave/Generated/RTC\rtc.h ****  *    return 0;
 210:C:/Workspaces/DAVE-4.4.2-64Bit/fh-kaernten/DAVE_M2M_1/XMC4500_MTSR_Start_002/Dave/Generated/RTC\rtc.h ****  *  }
 211:C:/Workspaces/DAVE-4.4.2-64Bit/fh-kaernten/DAVE_M2M_1/XMC4500_MTSR_Start_002/Dave/Generated/RTC\rtc.h ****  * @endcode<BR> </p>
 212:C:/Workspaces/DAVE-4.4.2-64Bit/fh-kaernten/DAVE_M2M_1/XMC4500_MTSR_Start_002/Dave/Generated/RTC\rtc.h ****  */
 213:C:/Workspaces/DAVE-4.4.2-64Bit/fh-kaernten/DAVE_M2M_1/XMC4500_MTSR_Start_002/Dave/Generated/RTC\rtc.h **** DAVE_APP_VERSION_t RTC_GetAppVersion(void);
 214:C:/Workspaces/DAVE-4.4.2-64Bit/fh-kaernten/DAVE_M2M_1/XMC4500_MTSR_Start_002/Dave/Generated/RTC\rtc.h **** 
 215:C:/Workspaces/DAVE-4.4.2-64Bit/fh-kaernten/DAVE_M2M_1/XMC4500_MTSR_Start_002/Dave/Generated/RTC\rtc.h **** 
 216:C:/Workspaces/DAVE-4.4.2-64Bit/fh-kaernten/DAVE_M2M_1/XMC4500_MTSR_Start_002/Dave/Generated/RTC\rtc.h ****  /**
 217:C:/Workspaces/DAVE-4.4.2-64Bit/fh-kaernten/DAVE_M2M_1/XMC4500_MTSR_Start_002/Dave/Generated/RTC\rtc.h ****  * @brief Initializes RTC module.
 218:C:/Workspaces/DAVE-4.4.2-64Bit/fh-kaernten/DAVE_M2M_1/XMC4500_MTSR_Start_002/Dave/Generated/RTC\rtc.h ****  * @param handle Constant pointer to RTC structure of type @ref RTC_t
 219:C:/Workspaces/DAVE-4.4.2-64Bit/fh-kaernten/DAVE_M2M_1/XMC4500_MTSR_Start_002/Dave/Generated/RTC\rtc.h ****  * @return @ref RTC_STATUS_t
 220:C:/Workspaces/DAVE-4.4.2-64Bit/fh-kaernten/DAVE_M2M_1/XMC4500_MTSR_Start_002/Dave/Generated/RTC\rtc.h ****  *
 221:C:/Workspaces/DAVE-4.4.2-64Bit/fh-kaernten/DAVE_M2M_1/XMC4500_MTSR_Start_002/Dave/Generated/RTC\rtc.h ****  * \par<b>Description:</b><br>
 222:C:/Workspaces/DAVE-4.4.2-64Bit/fh-kaernten/DAVE_M2M_1/XMC4500_MTSR_Start_002/Dave/Generated/RTC\rtc.h ****  * Configures the RTC module registers as per settings updated in
 223:C:/Workspaces/DAVE-4.4.2-64Bit/fh-kaernten/DAVE_M2M_1/XMC4500_MTSR_Start_002/Dave/Generated/RTC\rtc.h ****  * UI and enables the RTC module.
 224:C:/Workspaces/DAVE-4.4.2-64Bit/fh-kaernten/DAVE_M2M_1/XMC4500_MTSR_Start_002/Dave/Generated/RTC\rtc.h ****  *
 225:C:/Workspaces/DAVE-4.4.2-64Bit/fh-kaernten/DAVE_M2M_1/XMC4500_MTSR_Start_002/Dave/Generated/RTC\rtc.h ****  * <P ALIGN="LEFT"><B>Example:</B>
 226:C:/Workspaces/DAVE-4.4.2-64Bit/fh-kaernten/DAVE_M2M_1/XMC4500_MTSR_Start_002/Dave/Generated/RTC\rtc.h ****  * Pre-requisite: Instantiate RTC APP and generate code before copying below code snippet.
 227:C:/Workspaces/DAVE-4.4.2-64Bit/fh-kaernten/DAVE_M2M_1/XMC4500_MTSR_Start_002/Dave/Generated/RTC\rtc.h ****  * @code
 228:C:/Workspaces/DAVE-4.4.2-64Bit/fh-kaernten/DAVE_M2M_1/XMC4500_MTSR_Start_002/Dave/Generated/RTC\rtc.h ****  *  #include <DAVE.h>
 229:C:/Workspaces/DAVE-4.4.2-64Bit/fh-kaernten/DAVE_M2M_1/XMC4500_MTSR_Start_002/Dave/Generated/RTC\rtc.h ****  *  int main(void)
 230:C:/Workspaces/DAVE-4.4.2-64Bit/fh-kaernten/DAVE_M2M_1/XMC4500_MTSR_Start_002/Dave/Generated/RTC\rtc.h ****  *  {
 231:C:/Workspaces/DAVE-4.4.2-64Bit/fh-kaernten/DAVE_M2M_1/XMC4500_MTSR_Start_002/Dave/Generated/RTC\rtc.h ****  *    DAVE_Init(); // RTC_Init(&RTC_0) will be called within DAVE_Init()
 232:C:/Workspaces/DAVE-4.4.2-64Bit/fh-kaernten/DAVE_M2M_1/XMC4500_MTSR_Start_002/Dave/Generated/RTC\rtc.h ****  *    // ... infinite loop ...
 233:C:/Workspaces/DAVE-4.4.2-64Bit/fh-kaernten/DAVE_M2M_1/XMC4500_MTSR_Start_002/Dave/Generated/RTC\rtc.h ****  *    while(1)
 234:C:/Workspaces/DAVE-4.4.2-64Bit/fh-kaernten/DAVE_M2M_1/XMC4500_MTSR_Start_002/Dave/Generated/RTC\rtc.h ****  *    {}
 235:C:/Workspaces/DAVE-4.4.2-64Bit/fh-kaernten/DAVE_M2M_1/XMC4500_MTSR_Start_002/Dave/Generated/RTC\rtc.h ****  *  }
 236:C:/Workspaces/DAVE-4.4.2-64Bit/fh-kaernten/DAVE_M2M_1/XMC4500_MTSR_Start_002/Dave/Generated/RTC\rtc.h ****  * @endcode<BR> </p> 
 237:C:/Workspaces/DAVE-4.4.2-64Bit/fh-kaernten/DAVE_M2M_1/XMC4500_MTSR_Start_002/Dave/Generated/RTC\rtc.h ****  */
 238:C:/Workspaces/DAVE-4.4.2-64Bit/fh-kaernten/DAVE_M2M_1/XMC4500_MTSR_Start_002/Dave/Generated/RTC\rtc.h **** RTC_STATUS_t RTC_Init(RTC_t *const handle);
 239:C:/Workspaces/DAVE-4.4.2-64Bit/fh-kaernten/DAVE_M2M_1/XMC4500_MTSR_Start_002/Dave/Generated/RTC\rtc.h **** 
 240:C:/Workspaces/DAVE-4.4.2-64Bit/fh-kaernten/DAVE_M2M_1/XMC4500_MTSR_Start_002/Dave/Generated/RTC\rtc.h **** /**
 241:C:/Workspaces/DAVE-4.4.2-64Bit/fh-kaernten/DAVE_M2M_1/XMC4500_MTSR_Start_002/Dave/Generated/RTC\rtc.h ****  * @brief Returns the time in seconds since the epoch time(01/01/1970).
 242:C:/Workspaces/DAVE-4.4.2-64Bit/fh-kaernten/DAVE_M2M_1/XMC4500_MTSR_Start_002/Dave/Generated/RTC\rtc.h ****  * @param time_value Pointer to structure of type @ref time_t
 243:C:/Workspaces/DAVE-4.4.2-64Bit/fh-kaernten/DAVE_M2M_1/XMC4500_MTSR_Start_002/Dave/Generated/RTC\rtc.h ****  * @return @ref RTC_STATUS_t
 244:C:/Workspaces/DAVE-4.4.2-64Bit/fh-kaernten/DAVE_M2M_1/XMC4500_MTSR_Start_002/Dave/Generated/RTC\rtc.h ****  *
 245:C:/Workspaces/DAVE-4.4.2-64Bit/fh-kaernten/DAVE_M2M_1/XMC4500_MTSR_Start_002/Dave/Generated/RTC\rtc.h ****  * <P ALIGN="LEFT"><B>Example:</B>
 246:C:/Workspaces/DAVE-4.4.2-64Bit/fh-kaernten/DAVE_M2M_1/XMC4500_MTSR_Start_002/Dave/Generated/RTC\rtc.h ****  * Pre-requisite: Instantiate RTC APP and generate code before copying below code snippet.
 247:C:/Workspaces/DAVE-4.4.2-64Bit/fh-kaernten/DAVE_M2M_1/XMC4500_MTSR_Start_002/Dave/Generated/RTC\rtc.h ****  * @code 
 248:C:/Workspaces/DAVE-4.4.2-64Bit/fh-kaernten/DAVE_M2M_1/XMC4500_MTSR_Start_002/Dave/Generated/RTC\rtc.h ****  * #include <DAVE.h>
 249:C:/Workspaces/DAVE-4.4.2-64Bit/fh-kaernten/DAVE_M2M_1/XMC4500_MTSR_Start_002/Dave/Generated/RTC\rtc.h ****  * int main(void)
 250:C:/Workspaces/DAVE-4.4.2-64Bit/fh-kaernten/DAVE_M2M_1/XMC4500_MTSR_Start_002/Dave/Generated/RTC\rtc.h ****  * {
 251:C:/Workspaces/DAVE-4.4.2-64Bit/fh-kaernten/DAVE_M2M_1/XMC4500_MTSR_Start_002/Dave/Generated/RTC\rtc.h ****  *   RTC_STATUS_t status = RTC_STATUS_FAILURE;
 252:C:/Workspaces/DAVE-4.4.2-64Bit/fh-kaernten/DAVE_M2M_1/XMC4500_MTSR_Start_002/Dave/Generated/RTC\rtc.h ****  *   time_t Time_Sec;
 253:C:/Workspaces/DAVE-4.4.2-64Bit/fh-kaernten/DAVE_M2M_1/XMC4500_MTSR_Start_002/Dave/Generated/RTC\rtc.h ****  *   DAVE_Init();  // RTC_Init(&RTC_0) will be called within DAVE_Init()
 254:C:/Workspaces/DAVE-4.4.2-64Bit/fh-kaernten/DAVE_M2M_1/XMC4500_MTSR_Start_002/Dave/Generated/RTC\rtc.h ****  *   status = RTC_Time(&Time_Sec);
 255:C:/Workspaces/DAVE-4.4.2-64Bit/fh-kaernten/DAVE_M2M_1/XMC4500_MTSR_Start_002/Dave/Generated/RTC\rtc.h ****  *   if(status != RTC_STATUS_SUCCESS)
 256:C:/Workspaces/DAVE-4.4.2-64Bit/fh-kaernten/DAVE_M2M_1/XMC4500_MTSR_Start_002/Dave/Generated/RTC\rtc.h ****  *   {
 257:C:/Workspaces/DAVE-4.4.2-64Bit/fh-kaernten/DAVE_M2M_1/XMC4500_MTSR_Start_002/Dave/Generated/RTC\rtc.h ****  *	   //error
 258:C:/Workspaces/DAVE-4.4.2-64Bit/fh-kaernten/DAVE_M2M_1/XMC4500_MTSR_Start_002/Dave/Generated/RTC\rtc.h ****  *   }
 259:C:/Workspaces/DAVE-4.4.2-64Bit/fh-kaernten/DAVE_M2M_1/XMC4500_MTSR_Start_002/Dave/Generated/RTC\rtc.h ****  *   // ... infinite loop ...
 260:C:/Workspaces/DAVE-4.4.2-64Bit/fh-kaernten/DAVE_M2M_1/XMC4500_MTSR_Start_002/Dave/Generated/RTC\rtc.h ****  *   while(1)
 261:C:/Workspaces/DAVE-4.4.2-64Bit/fh-kaernten/DAVE_M2M_1/XMC4500_MTSR_Start_002/Dave/Generated/RTC\rtc.h ****  *   {}
 262:C:/Workspaces/DAVE-4.4.2-64Bit/fh-kaernten/DAVE_M2M_1/XMC4500_MTSR_Start_002/Dave/Generated/RTC\rtc.h ****  * }
 263:C:/Workspaces/DAVE-4.4.2-64Bit/fh-kaernten/DAVE_M2M_1/XMC4500_MTSR_Start_002/Dave/Generated/RTC\rtc.h ****  * @endcode<BR> </p> 
 264:C:/Workspaces/DAVE-4.4.2-64Bit/fh-kaernten/DAVE_M2M_1/XMC4500_MTSR_Start_002/Dave/Generated/RTC\rtc.h ****  */
 265:C:/Workspaces/DAVE-4.4.2-64Bit/fh-kaernten/DAVE_M2M_1/XMC4500_MTSR_Start_002/Dave/Generated/RTC\rtc.h **** RTC_STATUS_t RTC_Time(time_t* time_value) ;
 266:C:/Workspaces/DAVE-4.4.2-64Bit/fh-kaernten/DAVE_M2M_1/XMC4500_MTSR_Start_002/Dave/Generated/RTC\rtc.h **** 
 267:C:/Workspaces/DAVE-4.4.2-64Bit/fh-kaernten/DAVE_M2M_1/XMC4500_MTSR_Start_002/Dave/Generated/RTC\rtc.h **** /**
 268:C:/Workspaces/DAVE-4.4.2-64Bit/fh-kaernten/DAVE_M2M_1/XMC4500_MTSR_Start_002/Dave/Generated/RTC\rtc.h ****  * @brief Starts the RTC running
 269:C:/Workspaces/DAVE-4.4.2-64Bit/fh-kaernten/DAVE_M2M_1/XMC4500_MTSR_Start_002/Dave/Generated/RTC\rtc.h ****  * @return None
 270:C:/Workspaces/DAVE-4.4.2-64Bit/fh-kaernten/DAVE_M2M_1/XMC4500_MTSR_Start_002/Dave/Generated/RTC\rtc.h ****  *
 271:C:/Workspaces/DAVE-4.4.2-64Bit/fh-kaernten/DAVE_M2M_1/XMC4500_MTSR_Start_002/Dave/Generated/RTC\rtc.h ****  *\par<b>Description: </b><br>
 272:C:/Workspaces/DAVE-4.4.2-64Bit/fh-kaernten/DAVE_M2M_1/XMC4500_MTSR_Start_002/Dave/Generated/RTC\rtc.h ****  * Before verifying this API it is required to deselect "Start after initialization" checbox in UI.
 273:C:/Workspaces/DAVE-4.4.2-64Bit/fh-kaernten/DAVE_M2M_1/XMC4500_MTSR_Start_002/Dave/Generated/RTC\rtc.h ****  * Thereby this API shall be used to start the RTC module.
 274:C:/Workspaces/DAVE-4.4.2-64Bit/fh-kaernten/DAVE_M2M_1/XMC4500_MTSR_Start_002/Dave/Generated/RTC\rtc.h ****  * <P ALIGN="LEFT"><B>Example:</B>
 275:C:/Workspaces/DAVE-4.4.2-64Bit/fh-kaernten/DAVE_M2M_1/XMC4500_MTSR_Start_002/Dave/Generated/RTC\rtc.h ****  * Pre-requisite:
 276:C:/Workspaces/DAVE-4.4.2-64Bit/fh-kaernten/DAVE_M2M_1/XMC4500_MTSR_Start_002/Dave/Generated/RTC\rtc.h ****  * 1. Instantiate RTC APP <br>
 277:C:/Workspaces/DAVE-4.4.2-64Bit/fh-kaernten/DAVE_M2M_1/XMC4500_MTSR_Start_002/Dave/Generated/RTC\rtc.h ****  * 2. Unselect "Start after initialization checkbox in UI" <br>
 278:C:/Workspaces/DAVE-4.4.2-64Bit/fh-kaernten/DAVE_M2M_1/XMC4500_MTSR_Start_002/Dave/Generated/RTC\rtc.h ****  * 3. Generate code before copying below code snippet. <br>
 279:C:/Workspaces/DAVE-4.4.2-64Bit/fh-kaernten/DAVE_M2M_1/XMC4500_MTSR_Start_002/Dave/Generated/RTC\rtc.h ****  * @code
 280:C:/Workspaces/DAVE-4.4.2-64Bit/fh-kaernten/DAVE_M2M_1/XMC4500_MTSR_Start_002/Dave/Generated/RTC\rtc.h ****  * #include <DAVE.h>
 281:C:/Workspaces/DAVE-4.4.2-64Bit/fh-kaernten/DAVE_M2M_1/XMC4500_MTSR_Start_002/Dave/Generated/RTC\rtc.h ****  * int main(void)
 282:C:/Workspaces/DAVE-4.4.2-64Bit/fh-kaernten/DAVE_M2M_1/XMC4500_MTSR_Start_002/Dave/Generated/RTC\rtc.h ****  * {
 283:C:/Workspaces/DAVE-4.4.2-64Bit/fh-kaernten/DAVE_M2M_1/XMC4500_MTSR_Start_002/Dave/Generated/RTC\rtc.h ****  *   DAVE_Init();// RTC_Init(&RTC_0) will be called within DAVE_Init()
 284:C:/Workspaces/DAVE-4.4.2-64Bit/fh-kaernten/DAVE_M2M_1/XMC4500_MTSR_Start_002/Dave/Generated/RTC\rtc.h ****  *   RTC_Stop();
 285:C:/Workspaces/DAVE-4.4.2-64Bit/fh-kaernten/DAVE_M2M_1/XMC4500_MTSR_Start_002/Dave/Generated/RTC\rtc.h ****  *   if (XMC_RTC_IsRunning() == false)
 286:C:/Workspaces/DAVE-4.4.2-64Bit/fh-kaernten/DAVE_M2M_1/XMC4500_MTSR_Start_002/Dave/Generated/RTC\rtc.h ****  *   {
 287:C:/Workspaces/DAVE-4.4.2-64Bit/fh-kaernten/DAVE_M2M_1/XMC4500_MTSR_Start_002/Dave/Generated/RTC\rtc.h ****  *     RTC_Start();
 288:C:/Workspaces/DAVE-4.4.2-64Bit/fh-kaernten/DAVE_M2M_1/XMC4500_MTSR_Start_002/Dave/Generated/RTC\rtc.h ****  *   }
 289:C:/Workspaces/DAVE-4.4.2-64Bit/fh-kaernten/DAVE_M2M_1/XMC4500_MTSR_Start_002/Dave/Generated/RTC\rtc.h ****  *   // ... infinite loop ...
 290:C:/Workspaces/DAVE-4.4.2-64Bit/fh-kaernten/DAVE_M2M_1/XMC4500_MTSR_Start_002/Dave/Generated/RTC\rtc.h ****  *   while(1)
 291:C:/Workspaces/DAVE-4.4.2-64Bit/fh-kaernten/DAVE_M2M_1/XMC4500_MTSR_Start_002/Dave/Generated/RTC\rtc.h ****  *   {}
 292:C:/Workspaces/DAVE-4.4.2-64Bit/fh-kaernten/DAVE_M2M_1/XMC4500_MTSR_Start_002/Dave/Generated/RTC\rtc.h ****  * }
 293:C:/Workspaces/DAVE-4.4.2-64Bit/fh-kaernten/DAVE_M2M_1/XMC4500_MTSR_Start_002/Dave/Generated/RTC\rtc.h ****  * @endcode<BR> </p>
 294:C:/Workspaces/DAVE-4.4.2-64Bit/fh-kaernten/DAVE_M2M_1/XMC4500_MTSR_Start_002/Dave/Generated/RTC\rtc.h ****  */
 295:C:/Workspaces/DAVE-4.4.2-64Bit/fh-kaernten/DAVE_M2M_1/XMC4500_MTSR_Start_002/Dave/Generated/RTC\rtc.h **** __STATIC_INLINE void RTC_Start(void)
 296:C:/Workspaces/DAVE-4.4.2-64Bit/fh-kaernten/DAVE_M2M_1/XMC4500_MTSR_Start_002/Dave/Generated/RTC\rtc.h **** {
  26              	 .loc 1 296 0
  27              	 .cfi_startproc
  28              	 
  29              	 
  30 0000 80B5     	 push {r7,lr}
  31              	.LCFI0:
  32              	 .cfi_def_cfa_offset 8
  33              	 .cfi_offset 7,-8
  34              	 .cfi_offset 14,-4
  35 0002 00AF     	 add r7,sp,#0
  36              	.LCFI1:
  37              	 .cfi_def_cfa_register 7
 297:C:/Workspaces/DAVE-4.4.2-64Bit/fh-kaernten/DAVE_M2M_1/XMC4500_MTSR_Start_002/Dave/Generated/RTC\rtc.h **** 	XMC_RTC_Start();
  38              	 .loc 1 297 0
  39 0004 FFF7FEFF 	 bl XMC_RTC_Start
 298:C:/Workspaces/DAVE-4.4.2-64Bit/fh-kaernten/DAVE_M2M_1/XMC4500_MTSR_Start_002/Dave/Generated/RTC\rtc.h **** }
  40              	 .loc 1 298 0
  41 0008 80BD     	 pop {r7,pc}
  42              	 .cfi_endproc
  43              	.LFE270:
  45 000a 00BF     	 .section .text.RTC_Stop,"ax",%progbits
  46              	 .align 2
  47              	 .thumb
  48              	 .thumb_func
  50              	RTC_Stop:
  51              	.LFB271:
 299:C:/Workspaces/DAVE-4.4.2-64Bit/fh-kaernten/DAVE_M2M_1/XMC4500_MTSR_Start_002/Dave/Generated/RTC\rtc.h **** 
 300:C:/Workspaces/DAVE-4.4.2-64Bit/fh-kaernten/DAVE_M2M_1/XMC4500_MTSR_Start_002/Dave/Generated/RTC\rtc.h **** /**
 301:C:/Workspaces/DAVE-4.4.2-64Bit/fh-kaernten/DAVE_M2M_1/XMC4500_MTSR_Start_002/Dave/Generated/RTC\rtc.h ****  * @brief Stops the RTC running
 302:C:/Workspaces/DAVE-4.4.2-64Bit/fh-kaernten/DAVE_M2M_1/XMC4500_MTSR_Start_002/Dave/Generated/RTC\rtc.h ****  * @return None
 303:C:/Workspaces/DAVE-4.4.2-64Bit/fh-kaernten/DAVE_M2M_1/XMC4500_MTSR_Start_002/Dave/Generated/RTC\rtc.h ****  *
 304:C:/Workspaces/DAVE-4.4.2-64Bit/fh-kaernten/DAVE_M2M_1/XMC4500_MTSR_Start_002/Dave/Generated/RTC\rtc.h ****  * <P ALIGN="LEFT"><B>Example:</B>
 305:C:/Workspaces/DAVE-4.4.2-64Bit/fh-kaernten/DAVE_M2M_1/XMC4500_MTSR_Start_002/Dave/Generated/RTC\rtc.h ****  * Pre-requisite: Instantiate RTC APP <br>
 306:C:/Workspaces/DAVE-4.4.2-64Bit/fh-kaernten/DAVE_M2M_1/XMC4500_MTSR_Start_002/Dave/Generated/RTC\rtc.h ****  * Enable periodic seconds event in "Interrupt Settings" tab. <br>
 307:C:/Workspaces/DAVE-4.4.2-64Bit/fh-kaernten/DAVE_M2M_1/XMC4500_MTSR_Start_002/Dave/Generated/RTC\rtc.h ****  * Generate code before copying below code snippet.
 308:C:/Workspaces/DAVE-4.4.2-64Bit/fh-kaernten/DAVE_M2M_1/XMC4500_MTSR_Start_002/Dave/Generated/RTC\rtc.h ****  *
 309:C:/Workspaces/DAVE-4.4.2-64Bit/fh-kaernten/DAVE_M2M_1/XMC4500_MTSR_Start_002/Dave/Generated/RTC\rtc.h ****  * @code
 310:C:/Workspaces/DAVE-4.4.2-64Bit/fh-kaernten/DAVE_M2M_1/XMC4500_MTSR_Start_002/Dave/Generated/RTC\rtc.h ****  * #include <DAVE.h>
 311:C:/Workspaces/DAVE-4.4.2-64Bit/fh-kaernten/DAVE_M2M_1/XMC4500_MTSR_Start_002/Dave/Generated/RTC\rtc.h ****  *
 312:C:/Workspaces/DAVE-4.4.2-64Bit/fh-kaernten/DAVE_M2M_1/XMC4500_MTSR_Start_002/Dave/Generated/RTC\rtc.h ****  * void Time_Handler(void)
 313:C:/Workspaces/DAVE-4.4.2-64Bit/fh-kaernten/DAVE_M2M_1/XMC4500_MTSR_Start_002/Dave/Generated/RTC\rtc.h ****  * {
 314:C:/Workspaces/DAVE-4.4.2-64Bit/fh-kaernten/DAVE_M2M_1/XMC4500_MTSR_Start_002/Dave/Generated/RTC\rtc.h ****  *    static uint32_t seconds = 0;
 315:C:/Workspaces/DAVE-4.4.2-64Bit/fh-kaernten/DAVE_M2M_1/XMC4500_MTSR_Start_002/Dave/Generated/RTC\rtc.h ****  *    seconds++;
 316:C:/Workspaces/DAVE-4.4.2-64Bit/fh-kaernten/DAVE_M2M_1/XMC4500_MTSR_Start_002/Dave/Generated/RTC\rtc.h ****  *
 317:C:/Workspaces/DAVE-4.4.2-64Bit/fh-kaernten/DAVE_M2M_1/XMC4500_MTSR_Start_002/Dave/Generated/RTC\rtc.h ****  *    if(seconds == 30)
 318:C:/Workspaces/DAVE-4.4.2-64Bit/fh-kaernten/DAVE_M2M_1/XMC4500_MTSR_Start_002/Dave/Generated/RTC\rtc.h ****  *    {
 319:C:/Workspaces/DAVE-4.4.2-64Bit/fh-kaernten/DAVE_M2M_1/XMC4500_MTSR_Start_002/Dave/Generated/RTC\rtc.h ****  *      RTC_Stop();
 320:C:/Workspaces/DAVE-4.4.2-64Bit/fh-kaernten/DAVE_M2M_1/XMC4500_MTSR_Start_002/Dave/Generated/RTC\rtc.h ****  *    }
 321:C:/Workspaces/DAVE-4.4.2-64Bit/fh-kaernten/DAVE_M2M_1/XMC4500_MTSR_Start_002/Dave/Generated/RTC\rtc.h ****  * }
 322:C:/Workspaces/DAVE-4.4.2-64Bit/fh-kaernten/DAVE_M2M_1/XMC4500_MTSR_Start_002/Dave/Generated/RTC\rtc.h ****  * int main(void)
 323:C:/Workspaces/DAVE-4.4.2-64Bit/fh-kaernten/DAVE_M2M_1/XMC4500_MTSR_Start_002/Dave/Generated/RTC\rtc.h ****  * {
 324:C:/Workspaces/DAVE-4.4.2-64Bit/fh-kaernten/DAVE_M2M_1/XMC4500_MTSR_Start_002/Dave/Generated/RTC\rtc.h ****  *   DAVE_Init(); // RTC_Init(&RTC_0) will be called within DAVE_Init()
 325:C:/Workspaces/DAVE-4.4.2-64Bit/fh-kaernten/DAVE_M2M_1/XMC4500_MTSR_Start_002/Dave/Generated/RTC\rtc.h ****  *   // ... infinite loop ...
 326:C:/Workspaces/DAVE-4.4.2-64Bit/fh-kaernten/DAVE_M2M_1/XMC4500_MTSR_Start_002/Dave/Generated/RTC\rtc.h ****  *   while(1)
 327:C:/Workspaces/DAVE-4.4.2-64Bit/fh-kaernten/DAVE_M2M_1/XMC4500_MTSR_Start_002/Dave/Generated/RTC\rtc.h ****  *   {}
 328:C:/Workspaces/DAVE-4.4.2-64Bit/fh-kaernten/DAVE_M2M_1/XMC4500_MTSR_Start_002/Dave/Generated/RTC\rtc.h ****  * }
 329:C:/Workspaces/DAVE-4.4.2-64Bit/fh-kaernten/DAVE_M2M_1/XMC4500_MTSR_Start_002/Dave/Generated/RTC\rtc.h ****  * @endcode<BR> </p>
 330:C:/Workspaces/DAVE-4.4.2-64Bit/fh-kaernten/DAVE_M2M_1/XMC4500_MTSR_Start_002/Dave/Generated/RTC\rtc.h ****  */
 331:C:/Workspaces/DAVE-4.4.2-64Bit/fh-kaernten/DAVE_M2M_1/XMC4500_MTSR_Start_002/Dave/Generated/RTC\rtc.h **** __STATIC_INLINE void RTC_Stop(void)
 332:C:/Workspaces/DAVE-4.4.2-64Bit/fh-kaernten/DAVE_M2M_1/XMC4500_MTSR_Start_002/Dave/Generated/RTC\rtc.h **** {
  52              	 .loc 1 332 0
  53              	 .cfi_startproc
  54              	 
  55              	 
  56 0000 80B5     	 push {r7,lr}
  57              	.LCFI2:
  58              	 .cfi_def_cfa_offset 8
  59              	 .cfi_offset 7,-8
  60              	 .cfi_offset 14,-4
  61 0002 00AF     	 add r7,sp,#0
  62              	.LCFI3:
  63              	 .cfi_def_cfa_register 7
 333:C:/Workspaces/DAVE-4.4.2-64Bit/fh-kaernten/DAVE_M2M_1/XMC4500_MTSR_Start_002/Dave/Generated/RTC\rtc.h **** 	XMC_RTC_Stop();
  64              	 .loc 1 333 0
  65 0004 FFF7FEFF 	 bl XMC_RTC_Stop
 334:C:/Workspaces/DAVE-4.4.2-64Bit/fh-kaernten/DAVE_M2M_1/XMC4500_MTSR_Start_002/Dave/Generated/RTC\rtc.h **** }
  66              	 .loc 1 334 0
  67 0008 80BD     	 pop {r7,pc}
  68              	 .cfi_endproc
  69              	.LFE271:
  71              	 .global timetick_count
  72 000a 00BF     	 .section .bss.timetick_count,"aw",%nobits
  73              	 .align 2
  76              	timetick_count:
  77 0000 00000000 	 .space 4
  78              	 .global mainloop_ticks
  79              	 .section .bss.mainloop_ticks,"aw",%nobits
  82              	mainloop_ticks:
  83 0000 00       	 .space 1
  84              	 .global incr_all_sec
  85              	 .section .bss.incr_all_sec,"aw",%nobits
  86              	 .align 1
  89              	incr_all_sec:
  90 0000 0000     	 .space 2
  91              	 .global SNTP_sec_time_ticks
  92              	 .section .bss.SNTP_sec_time_ticks,"aw",%nobits
  93              	 .align 1
  96              	SNTP_sec_time_ticks:
  97 0000 0000     	 .space 2
  98              	 .comm timeval,8,4
  99              	 .comm f,2,4
 100              	 .section .text.MAINLOOP_IRQ,"ax",%progbits
 101              	 .align 2
 102              	 .global MAINLOOP_IRQ
 103              	 .thumb
 104              	 .thumb_func
 106              	MAINLOOP_IRQ:
 107              	.LFB335:
 108              	 .file 2 "../Has_Misc.c"
   1:../Has_Misc.c **** /*
   2:../Has_Misc.c ****  * Has_Misc.c
   3:../Has_Misc.c ****  *
   4:../Has_Misc.c ****  *  Created on: Oct 13, 2015
   5:../Has_Misc.c ****  *      Author: haselb
   6:../Has_Misc.c ****  */
   7:../Has_Misc.c **** 
   8:../Has_Misc.c **** #include <Dave.h>
   9:../Has_Misc.c **** #include "Has_Misc.h"
  10:../Has_Misc.c **** 
  11:../Has_Misc.c **** 
  12:../Has_Misc.c **** 
  13:../Has_Misc.c **** volatile uint32_t timetick_count=0;	// global variable for time tick count
  14:../Has_Misc.c **** volatile uint8_t mainloop_ticks=0;
  15:../Has_Misc.c **** volatile uint16_t incr_all_sec=0;
  16:../Has_Misc.c **** volatile uint16_t SNTP_sec_time_ticks=0;
  17:../Has_Misc.c **** XMC_RTC_TIME_t timeval;
  18:../Has_Misc.c **** volatile FLAG_ARRAY_t f;
  19:../Has_Misc.c **** 
  20:../Has_Misc.c **** 
  21:../Has_Misc.c **** /*!
  22:../Has_Misc.c ****  * @brief 	   Callback function for mainloop endurance.
  23:../Has_Misc.c ****  * @param[in]  None
  24:../Has_Misc.c ****  * @param[out] None
  25:../Has_Misc.c ****  * @retval     void
  26:../Has_Misc.c ****  * @pre        adheres one of 16 available SYSTIMER, initiated by DAVE.
  27:../Has_Misc.c ****  * @post       Function updates global variable @ref mainloop_ticks.
  28:../Has_Misc.c ****  * @attention  SYSTIMER_CreateTimer in @ref INIT.c defines time endurance.
  29:../Has_Misc.c ****  * @note       This routine is the callback function of SYSTIMER. It is initiated in @ref INIT.c an
  30:../Has_Misc.c ****  * invoked by the ISR generated from SYSTIMER.
  31:../Has_Misc.c ****  */
  32:../Has_Misc.c **** void MAINLOOP_IRQ(void)
  33:../Has_Misc.c **** {
 109              	 .loc 2 33 0
 110              	 .cfi_startproc
 111              	 
 112              	 
 113              	 
 114 0000 80B4     	 push {r7}
 115              	.LCFI4:
 116              	 .cfi_def_cfa_offset 4
 117              	 .cfi_offset 7,-4
 118 0002 00AF     	 add r7,sp,#0
 119              	.LCFI5:
 120              	 .cfi_def_cfa_register 7
  34:../Has_Misc.c **** 	mainloop_ticks++; // Increment time count
 121              	 .loc 2 34 0
 122 0004 054B     	 ldr r3,.L4
 123 0006 1B78     	 ldrb r3,[r3]
 124 0008 DBB2     	 uxtb r3,r3
 125 000a 0133     	 adds r3,r3,#1
 126 000c DAB2     	 uxtb r2,r3
 127 000e 034B     	 ldr r3,.L4
 128 0010 1A70     	 strb r2,[r3]
  35:../Has_Misc.c **** }
 129              	 .loc 2 35 0
 130 0012 BD46     	 mov sp,r7
 131              	.LCFI6:
 132              	 .cfi_def_cfa_register 13
 133              	 
 134 0014 5DF8047B 	 ldr r7,[sp],#4
 135              	.LCFI7:
 136              	 .cfi_restore 7
 137              	 .cfi_def_cfa_offset 0
 138 0018 7047     	 bx lr
 139              	.L5:
 140 001a 00BF     	 .align 2
 141              	.L4:
 142 001c 00000000 	 .word mainloop_ticks
 143              	 .cfi_endproc
 144              	.LFE335:
 146              	 .section .text.CCU43_1_IRQHandler,"ax",%progbits
 147              	 .align 2
 148              	 .global CCU43_1_IRQHandler
 149              	 .thumb
 150              	 .thumb_func
 152              	CCU43_1_IRQHandler:
 153              	.LFB336:
  36:../Has_Misc.c **** 
  37:../Has_Misc.c **** 
  38:../Has_Misc.c **** /*!
  39:../Has_Misc.c ****  * @brief 	   Function to handle IRQ via TIMER_0.
  40:../Has_Misc.c ****  * @param[in]  None
  41:../Has_Misc.c ****  * @param[out] None
  42:../Has_Misc.c ****  * @retval     void
  43:../Has_Misc.c ****  * @pre        retrieves TIMER_0-IRQ all 100s
  44:../Has_Misc.c ****  * @post       None
  45:../Has_Misc.c ****  * @attention  None
  46:../Has_Misc.c ****  * @note       This routine increments the counter variable @ref timetick_count .
  47:../Has_Misc.c ****  */
  48:../Has_Misc.c ****  void UserIRQHandler(void)
  49:../Has_Misc.c ****  {
 154              	 .loc 2 49 0
 155              	 .cfi_startproc
 156              	 
 157              	 
 158 0000 80B5     	 push {r7,lr}
 159              	.LCFI8:
 160              	 .cfi_def_cfa_offset 8
 161              	 .cfi_offset 7,-8
 162              	 .cfi_offset 14,-4
 163 0002 00AF     	 add r7,sp,#0
 164              	.LCFI9:
 165              	 .cfi_def_cfa_register 7
  50:../Has_Misc.c **** 
  51:../Has_Misc.c ****  	/* Acknowledge the period match interrupt*/
  52:../Has_Misc.c **** 	 TIMER_ClearEvent(&TIMER_0);
 166              	 .loc 2 52 0
 167 0004 0448     	 ldr r0,.L7
 168 0006 FFF7FEFF 	 bl TIMER_ClearEvent
  53:../Has_Misc.c **** 
  54:../Has_Misc.c ****  	/* Increment time tick count */
  55:../Has_Misc.c ****  	timetick_count++;
 169              	 .loc 2 55 0
 170 000a 044B     	 ldr r3,.L7+4
 171 000c 1B68     	 ldr r3,[r3]
 172 000e 0133     	 adds r3,r3,#1
 173 0010 024A     	 ldr r2,.L7+4
 174 0012 1360     	 str r3,[r2]
  56:../Has_Misc.c ****  }
 175              	 .loc 2 56 0
 176 0014 80BD     	 pop {r7,pc}
 177              	.L8:
 178 0016 00BF     	 .align 2
 179              	.L7:
 180 0018 00000000 	 .word TIMER_0
 181 001c 00000000 	 .word timetick_count
 182              	 .cfi_endproc
 183              	.LFE336:
 185              	 .section .text.UserIRQHandler_Key0,"ax",%progbits
 186              	 .align 2
 187              	 .global UserIRQHandler_Key0
 188              	 .thumb
 189              	 .thumb_func
 191              	UserIRQHandler_Key0:
 192              	.LFB337:
  57:../Has_Misc.c **** 
  58:../Has_Misc.c **** 
  59:../Has_Misc.c **** void UserIRQHandler_Key0(void)
  60:../Has_Misc.c **** {
 193              	 .loc 2 60 0
 194              	 .cfi_startproc
 195              	 
 196              	 
 197              	 
 198 0000 80B4     	 push {r7}
 199              	.LCFI10:
 200              	 .cfi_def_cfa_offset 4
 201              	 .cfi_offset 7,-4
 202 0002 00AF     	 add r7,sp,#0
 203              	.LCFI11:
 204              	 .cfi_def_cfa_register 7
  61:../Has_Misc.c **** 	f.KEY0=1;
 205              	 .loc 2 61 0
 206 0004 044B     	 ldr r3,.L10
 207 0006 1A88     	 ldrh r2,[r3]
 208 0008 42F00102 	 orr r2,r2,#1
 209 000c 1A80     	 strh r2,[r3]
  62:../Has_Misc.c **** }
 210              	 .loc 2 62 0
 211 000e BD46     	 mov sp,r7
 212              	.LCFI12:
 213              	 .cfi_def_cfa_register 13
 214              	 
 215 0010 5DF8047B 	 ldr r7,[sp],#4
 216              	.LCFI13:
 217              	 .cfi_restore 7
 218              	 .cfi_def_cfa_offset 0
 219 0014 7047     	 bx lr
 220              	.L11:
 221 0016 00BF     	 .align 2
 222              	.L10:
 223 0018 00000000 	 .word f
 224              	 .cfi_endproc
 225              	.LFE337:
 227              	 .section .text.delay100us,"ax",%progbits
 228              	 .align 2
 229              	 .global delay100us
 230              	 .thumb
 231              	 .thumb_func
 233              	delay100us:
 234              	.LFB338:
  63:../Has_Misc.c **** 
  64:../Has_Misc.c ****  /*!
  65:../Has_Misc.c ****   * @brief 	   Function to wait for n 100s.
  66:../Has_Misc.c ****   * @param[in]  uint32_t dwUs
  67:../Has_Misc.c ****   * @param[out] None
  68:../Has_Misc.c ****   * @retval     void
  69:../Has_Misc.c ****   * @pre        manages TIMER_0-IRQ
  70:../Has_Misc.c ****   * @post       None
  71:../Has_Misc.c ****   * @attention  None
  72:../Has_Misc.c ****   * @note       This routine uses the TIMER_0.
  73:../Has_Misc.c ****   */
  74:../Has_Misc.c ****  void delay100us(uint32_t dwUs)
  75:../Has_Misc.c ****  {
 235              	 .loc 2 75 0
 236              	 .cfi_startproc
 237              	 
 238              	 
 239 0000 80B5     	 push {r7,lr}
 240              	.LCFI14:
 241              	 .cfi_def_cfa_offset 8
 242              	 .cfi_offset 7,-8
 243              	 .cfi_offset 14,-4
 244 0002 82B0     	 sub sp,sp,#8
 245              	.LCFI15:
 246              	 .cfi_def_cfa_offset 16
 247 0004 00AF     	 add r7,sp,#0
 248              	.LCFI16:
 249              	 .cfi_def_cfa_register 7
 250 0006 7860     	 str r0,[r7,#4]
  76:../Has_Misc.c **** 	 timetick_count=0;
 251              	 .loc 2 76 0
 252 0008 0C4B     	 ldr r3,.L15
 253 000a 0022     	 movs r2,#0
 254 000c 1A60     	 str r2,[r3]
  77:../Has_Misc.c **** 	 TIMER_Start(&TIMER_0);
 255              	 .loc 2 77 0
 256 000e 0C48     	 ldr r0,.L15+4
 257 0010 FFF7FEFF 	 bl TIMER_Start
  78:../Has_Misc.c **** 	 while(timetick_count < dwUs);
 258              	 .loc 2 78 0
 259 0014 00BF     	 nop
 260              	.L13:
 261              	 .loc 2 78 0 is_stmt 0 discriminator 1
 262 0016 094B     	 ldr r3,.L15
 263 0018 1A68     	 ldr r2,[r3]
 264 001a 7B68     	 ldr r3,[r7,#4]
 265 001c 9A42     	 cmp r2,r3
 266 001e FAD3     	 bcc .L13
  79:../Has_Misc.c **** 	  {
  80:../Has_Misc.c **** 	    while(TIMER_GetInterruptStatus(&TIMER_0));
 267              	 .loc 2 80 0 is_stmt 1
 268 0020 00BF     	 nop
 269              	.L14:
 270              	 .loc 2 80 0 is_stmt 0 discriminator 1
 271 0022 0748     	 ldr r0,.L15+4
 272 0024 FFF7FEFF 	 bl TIMER_GetInterruptStatus
 273 0028 0346     	 mov r3,r0
 274 002a 002B     	 cmp r3,#0
 275 002c F9D1     	 bne .L14
  81:../Has_Misc.c **** 	    TIMER_Stop(&TIMER_0);
 276              	 .loc 2 81 0 is_stmt 1
 277 002e 0448     	 ldr r0,.L15+4
 278 0030 FFF7FEFF 	 bl TIMER_Stop
  82:../Has_Misc.c **** 	  }
  83:../Has_Misc.c **** 
  84:../Has_Misc.c ****  }
 279              	 .loc 2 84 0
 280 0034 0837     	 adds r7,r7,#8
 281              	.LCFI17:
 282              	 .cfi_def_cfa_offset 8
 283 0036 BD46     	 mov sp,r7
 284              	.LCFI18:
 285              	 .cfi_def_cfa_register 13
 286              	 
 287 0038 80BD     	 pop {r7,pc}
 288              	.L16:
 289 003a 00BF     	 .align 2
 290              	.L15:
 291 003c 00000000 	 .word timetick_count
 292 0040 00000000 	 .word TIMER_0
 293              	 .cfi_endproc
 294              	.LFE338:
 296              	 .section .text.RTC_Time_Handler,"ax",%progbits
 297              	 .align 2
 298              	 .global RTC_Time_Handler
 299              	 .thumb
 300              	 .thumb_func
 302              	RTC_Time_Handler:
 303              	.LFB339:
  85:../Has_Misc.c **** 
  86:../Has_Misc.c **** /*!
  87:../Has_Misc.c **** * @brief 	  Callback Handler initiated by DAVE RTC-IRQ-Service and is invoked all 1 Second.
  88:../Has_Misc.c **** * @param[in]  None
  89:../Has_Misc.c **** * @param[out] None
  90:../Has_Misc.c **** * @retval     void
  91:../Has_Misc.c **** * @pre        requires RTC-App, initiated by DAVE.
  92:../Has_Misc.c **** * @post       Function increment global variables @ref set_time_ticks.
  93:../Has_Misc.c **** * @attention  Enable Interrupt Settings - Time Interrupt Settings - SECOND.
  94:../Has_Misc.c **** * @note       This routine is the callback function of DAVE. It is invoked by the ISR generated fro
  95:../Has_Misc.c **** */
  96:../Has_Misc.c **** void RTC_Time_Handler(void) //RTC_IRQ_Handler
  97:../Has_Misc.c **** {
 304              	 .loc 2 97 0
 305              	 .cfi_startproc
 306              	 
 307              	 
 308              	 
 309 0000 80B4     	 push {r7}
 310              	.LCFI19:
 311              	 .cfi_def_cfa_offset 4
 312              	 .cfi_offset 7,-4
 313 0002 00AF     	 add r7,sp,#0
 314              	.LCFI20:
 315              	 .cfi_def_cfa_register 7
  98:../Has_Misc.c **** 	SNTP_sec_time_ticks++;
 316              	 .loc 2 98 0
 317 0004 084B     	 ldr r3,.L18
 318 0006 1B88     	 ldrh r3,[r3]
 319 0008 9BB2     	 uxth r3,r3
 320 000a 0133     	 adds r3,r3,#1
 321 000c 9AB2     	 uxth r2,r3
 322 000e 064B     	 ldr r3,.L18
 323 0010 1A80     	 strh r2,[r3]
  99:../Has_Misc.c **** 	incr_all_sec++;
 324              	 .loc 2 99 0
 325 0012 064B     	 ldr r3,.L18+4
 326 0014 1B88     	 ldrh r3,[r3]
 327 0016 9BB2     	 uxth r3,r3
 328 0018 0133     	 adds r3,r3,#1
 329 001a 9AB2     	 uxth r2,r3
 330 001c 034B     	 ldr r3,.L18+4
 331 001e 1A80     	 strh r2,[r3]
 100:../Has_Misc.c **** }
 332              	 .loc 2 100 0
 333 0020 BD46     	 mov sp,r7
 334              	.LCFI21:
 335              	 .cfi_def_cfa_register 13
 336              	 
 337 0022 5DF8047B 	 ldr r7,[sp],#4
 338              	.LCFI22:
 339              	 .cfi_restore 7
 340              	 .cfi_def_cfa_offset 0
 341 0026 7047     	 bx lr
 342              	.L19:
 343              	 .align 2
 344              	.L18:
 345 0028 00000000 	 .word SNTP_sec_time_ticks
 346 002c 00000000 	 .word incr_all_sec
 347              	 .cfi_endproc
 348              	.LFE339:
 350              	 .section .text.RTC_init,"ax",%progbits
 351              	 .align 2
 352              	 .global RTC_init
 353              	 .thumb
 354              	 .thumb_func
 356              	RTC_init:
 357              	.LFB340:
 101:../Has_Misc.c **** 
 102:../Has_Misc.c **** /*!
 103:../Has_Misc.c ****  * @brief 	   Function sanitizes @ref timeval struct and is invoked in init cycle.
 104:../Has_Misc.c ****  * @param[in]  None
 105:../Has_Misc.c ****  * @param[out] None
 106:../Has_Misc.c ****  * @retval     void
 107:../Has_Misc.c ****  * @pre        invoked in init cycle
 108:../Has_Misc.c ****  * @post       Function updates global variable @ref timeval
 109:../Has_Misc.c ****  * @attention  None
 110:../Has_Misc.c ****  * @note       This routine initializes @ref timeval values in RTC_0 App.
 111:../Has_Misc.c ****  */
 112:../Has_Misc.c **** void RTC_init(void)
 113:../Has_Misc.c **** {
 358              	 .loc 2 113 0
 359              	 .cfi_startproc
 360              	 
 361              	 
 362 0000 80B5     	 push {r7,lr}
 363              	.LCFI23:
 364              	 .cfi_def_cfa_offset 8
 365              	 .cfi_offset 7,-8
 366              	 .cfi_offset 14,-4
 367 0002 00AF     	 add r7,sp,#0
 368              	.LCFI24:
 369              	 .cfi_def_cfa_register 7
 114:../Has_Misc.c **** 	timeval.seconds=0;
 370              	 .loc 2 114 0
 371 0004 134A     	 ldr r2,.L21
 372 0006 1378     	 ldrb r3,[r2]
 373 0008 6FF30503 	 bfc r3,#0,#6
 374 000c 1370     	 strb r3,[r2]
 115:../Has_Misc.c **** 	timeval.minutes=0;
 375              	 .loc 2 115 0
 376 000e 114A     	 ldr r2,.L21
 377 0010 5378     	 ldrb r3,[r2,#1]
 378 0012 6FF30503 	 bfc r3,#0,#6
 379 0016 5370     	 strb r3,[r2,#1]
 116:../Has_Misc.c **** 	timeval.hours=16;
 380              	 .loc 2 116 0
 381 0018 0E4A     	 ldr r2,.L21
 382 001a 9378     	 ldrb r3,[r2,#2]
 383 001c 1021     	 movs r1,#16
 384 001e 61F30403 	 bfi r3,r1,#0,#5
 385 0022 9370     	 strb r3,[r2,#2]
 117:../Has_Misc.c **** 	timeval.days=4;
 386              	 .loc 2 117 0
 387 0024 0B4A     	 ldr r2,.L21
 388 0026 D378     	 ldrb r3,[r2,#3]
 389 0028 0421     	 movs r1,#4
 390 002a 61F30403 	 bfi r3,r1,#0,#5
 391 002e D370     	 strb r3,[r2,#3]
 118:../Has_Misc.c **** 	timeval.month=11;
 392              	 .loc 2 118 0
 393 0030 084A     	 ldr r2,.L21
 394 0032 5379     	 ldrb r3,[r2,#5]
 395 0034 0B21     	 movs r1,#11
 396 0036 61F30303 	 bfi r3,r1,#0,#4
 397 003a 5371     	 strb r3,[r2,#5]
 119:../Has_Misc.c **** 	timeval.year=2018;
 398              	 .loc 2 119 0
 399 003c 054B     	 ldr r3,.L21
 400 003e 40F2E272 	 movw r2,#2018
 401 0042 DA80     	 strh r2,[r3,#6]
 120:../Has_Misc.c **** 	RTC_Stop();
 402              	 .loc 2 120 0
 403 0044 FFF7FEFF 	 bl RTC_Stop
 121:../Has_Misc.c **** 	RTC_SetTime(&timeval);
 404              	 .loc 2 121 0
 405 0048 0248     	 ldr r0,.L21
 406 004a FFF7FEFF 	 bl RTC_SetTime
 122:../Has_Misc.c **** 	RTC_Start();
 407              	 .loc 2 122 0
 408 004e FFF7FEFF 	 bl RTC_Start
 123:../Has_Misc.c **** }
 409              	 .loc 2 123 0
 410 0052 80BD     	 pop {r7,pc}
 411              	.L22:
 412              	 .align 2
 413              	.L21:
 414 0054 00000000 	 .word timeval
 415              	 .cfi_endproc
 416              	.LFE340:
 418              	 .text
 419              	.Letext0:
 420              	 .file 3 "c:\\davev4-64bit\\dave-ide-4.4.2-64bit\\eclipse\\arm-gcc-49\\arm-none-eabi\\include\\machine\\_default_types.h"
 421              	 .file 4 "c:\\davev4-64bit\\dave-ide-4.4.2-64bit\\eclipse\\arm-gcc-49\\arm-none-eabi\\include\\stdint.h"
 422              	 .file 5 "C:/Workspaces/DAVE-4.4.2-64Bit/fh-kaernten/DAVE_M2M_1/XMC4500_MTSR_Start_002/Libraries/CMSIS/Infineon/XMC4500_series/Include/XMC4500.h"
 423              	 .file 6 "C:/Workspaces/DAVE-4.4.2-64Bit/fh-kaernten/DAVE_M2M_1/XMC4500_MTSR_Start_002/Libraries/XMCLib/inc/xmc4_scu.h"
 424              	 .file 7 "C:/Workspaces/DAVE-4.4.2-64Bit/fh-kaernten/DAVE_M2M_1/XMC4500_MTSR_Start_002/Libraries/XMCLib/inc/xmc_usic.h"
 425              	 .file 8 "C:/Workspaces/DAVE-4.4.2-64Bit/fh-kaernten/DAVE_M2M_1/XMC4500_MTSR_Start_002/Libraries/XMCLib/inc/xmc_ccu4.h"
 426              	 .file 9 "C:/Workspaces/DAVE-4.4.2-64Bit/fh-kaernten/DAVE_M2M_1/XMC4500_MTSR_Start_002/Dave/Generated/GLOBAL_CCU4/global_ccu4.h"
 427              	 .file 10 "C:/Workspaces/DAVE-4.4.2-64Bit/fh-kaernten/DAVE_M2M_1/XMC4500_MTSR_Start_002/Dave/Generated/TIMER/timer.h"
 428              	 .file 11 "C:/Workspaces/DAVE-4.4.2-64Bit/fh-kaernten/DAVE_M2M_1/XMC4500_MTSR_Start_002/Libraries/XMCLib/inc/xmc_rtc.h"
 429              	 .file 12 "../Has_Misc.h"
 430              	 .file 13 "C:/Workspaces/DAVE-4.4.2-64Bit/fh-kaernten/DAVE_M2M_1/XMC4500_MTSR_Start_002/Libraries/CMSIS/Include/core_cm4.h"
 431              	 .file 14 "C:/Workspaces/DAVE-4.4.2-64Bit/fh-kaernten/DAVE_M2M_1/XMC4500_MTSR_Start_002/Libraries/CMSIS/Infineon/XMC4500_series/Include/system_XMC4500.h"
 432              	 .file 15 "C:/Workspaces/DAVE-4.4.2-64Bit/fh-kaernten/DAVE_M2M_1/XMC4500_MTSR_Start_002/Dave/Generated/TIMER/timer_extern.h"