   1              	 .syntax unified
   2              	 .cpu cortex-m4
   3              	 .fpu softvfp
   4              	 .eabi_attribute 20,1
   5              	 .eabi_attribute 21,1
   6              	 .eabi_attribute 23,3
   7              	 .eabi_attribute 24,1
   8              	 .eabi_attribute 25,1
   9              	 .eabi_attribute 26,1
  10              	 .eabi_attribute 30,6
  11              	 .eabi_attribute 34,1
  12              	 .eabi_attribute 18,4
  13              	 .thumb
  14              	 .file "rtc.c"
  15              	 .text
  16              	.Ltext0:
  17              	 .cfi_sections .debug_frame
  18              	 .section .text.XMC_RTC_IsRunning,"ax",%progbits
  19              	 .align 2
  20              	 .thumb
  21              	 .thumb_func
  23              	XMC_RTC_IsRunning:
  24              	.LFB154:
  25              	 .file 1 "C:/Workspaces/DAVE-4.4.2-64Bit/fh-kaernten/DAVE_M2M_1/XMC4500_MTSR_Start_002/Libraries/XMCLib/inc/xmc_rtc.h"
   1:C:/Workspaces/DAVE-4.4.2-64Bit/fh-kaernten/DAVE_M2M_1/XMC4500_MTSR_Start_002/Libraries/XMCLib/inc\xmc_rtc.h **** /**
   2:C:/Workspaces/DAVE-4.4.2-64Bit/fh-kaernten/DAVE_M2M_1/XMC4500_MTSR_Start_002/Libraries/XMCLib/inc\xmc_rtc.h ****  * @file xmc_rtc.h
   3:C:/Workspaces/DAVE-4.4.2-64Bit/fh-kaernten/DAVE_M2M_1/XMC4500_MTSR_Start_002/Libraries/XMCLib/inc\xmc_rtc.h ****  * @date 2015-06-20 
   4:C:/Workspaces/DAVE-4.4.2-64Bit/fh-kaernten/DAVE_M2M_1/XMC4500_MTSR_Start_002/Libraries/XMCLib/inc\xmc_rtc.h ****  *
   5:C:/Workspaces/DAVE-4.4.2-64Bit/fh-kaernten/DAVE_M2M_1/XMC4500_MTSR_Start_002/Libraries/XMCLib/inc\xmc_rtc.h ****  * @cond
   6:C:/Workspaces/DAVE-4.4.2-64Bit/fh-kaernten/DAVE_M2M_1/XMC4500_MTSR_Start_002/Libraries/XMCLib/inc\xmc_rtc.h **** ***************************************************************************************************
   7:C:/Workspaces/DAVE-4.4.2-64Bit/fh-kaernten/DAVE_M2M_1/XMC4500_MTSR_Start_002/Libraries/XMCLib/inc\xmc_rtc.h ****  * XMClib v2.0.0 - XMC Peripheral Driver Library
   8:C:/Workspaces/DAVE-4.4.2-64Bit/fh-kaernten/DAVE_M2M_1/XMC4500_MTSR_Start_002/Libraries/XMCLib/inc\xmc_rtc.h ****  *
   9:C:/Workspaces/DAVE-4.4.2-64Bit/fh-kaernten/DAVE_M2M_1/XMC4500_MTSR_Start_002/Libraries/XMCLib/inc\xmc_rtc.h ****  * Copyright (c) 2015, Infineon Technologies AG
  10:C:/Workspaces/DAVE-4.4.2-64Bit/fh-kaernten/DAVE_M2M_1/XMC4500_MTSR_Start_002/Libraries/XMCLib/inc\xmc_rtc.h ****  * All rights reserved.                        
  11:C:/Workspaces/DAVE-4.4.2-64Bit/fh-kaernten/DAVE_M2M_1/XMC4500_MTSR_Start_002/Libraries/XMCLib/inc\xmc_rtc.h ****  *                                             
  12:C:/Workspaces/DAVE-4.4.2-64Bit/fh-kaernten/DAVE_M2M_1/XMC4500_MTSR_Start_002/Libraries/XMCLib/inc\xmc_rtc.h ****  * Redistribution and use in source and binary forms, with or without modification,are permitted pr
  13:C:/Workspaces/DAVE-4.4.2-64Bit/fh-kaernten/DAVE_M2M_1/XMC4500_MTSR_Start_002/Libraries/XMCLib/inc\xmc_rtc.h ****  * following conditions are met:   
  14:C:/Workspaces/DAVE-4.4.2-64Bit/fh-kaernten/DAVE_M2M_1/XMC4500_MTSR_Start_002/Libraries/XMCLib/inc\xmc_rtc.h ****  *                                                                              
  15:C:/Workspaces/DAVE-4.4.2-64Bit/fh-kaernten/DAVE_M2M_1/XMC4500_MTSR_Start_002/Libraries/XMCLib/inc\xmc_rtc.h ****  * Redistributions of source code must retain the above copyright notice, this list of conditions a
  16:C:/Workspaces/DAVE-4.4.2-64Bit/fh-kaernten/DAVE_M2M_1/XMC4500_MTSR_Start_002/Libraries/XMCLib/inc\xmc_rtc.h ****  * disclaimer.                        
  17:C:/Workspaces/DAVE-4.4.2-64Bit/fh-kaernten/DAVE_M2M_1/XMC4500_MTSR_Start_002/Libraries/XMCLib/inc\xmc_rtc.h ****  * 
  18:C:/Workspaces/DAVE-4.4.2-64Bit/fh-kaernten/DAVE_M2M_1/XMC4500_MTSR_Start_002/Libraries/XMCLib/inc\xmc_rtc.h ****  * Redistributions in binary form must reproduce the above copyright notice, this list of condition
  19:C:/Workspaces/DAVE-4.4.2-64Bit/fh-kaernten/DAVE_M2M_1/XMC4500_MTSR_Start_002/Libraries/XMCLib/inc\xmc_rtc.h ****  * disclaimer in the documentation and/or other materials provided with the distribution.          
  20:C:/Workspaces/DAVE-4.4.2-64Bit/fh-kaernten/DAVE_M2M_1/XMC4500_MTSR_Start_002/Libraries/XMCLib/inc\xmc_rtc.h ****  * 
  21:C:/Workspaces/DAVE-4.4.2-64Bit/fh-kaernten/DAVE_M2M_1/XMC4500_MTSR_Start_002/Libraries/XMCLib/inc\xmc_rtc.h ****  * Neither the name of the copyright holders nor the names of its contributors may be used to endor
  22:C:/Workspaces/DAVE-4.4.2-64Bit/fh-kaernten/DAVE_M2M_1/XMC4500_MTSR_Start_002/Libraries/XMCLib/inc\xmc_rtc.h ****  * products derived from this software without specific prior written permission.                  
  23:C:/Workspaces/DAVE-4.4.2-64Bit/fh-kaernten/DAVE_M2M_1/XMC4500_MTSR_Start_002/Libraries/XMCLib/inc\xmc_rtc.h ****  *                                                                              
  24:C:/Workspaces/DAVE-4.4.2-64Bit/fh-kaernten/DAVE_M2M_1/XMC4500_MTSR_Start_002/Libraries/XMCLib/inc\xmc_rtc.h ****  * THIS SOFTWARE IS PROVIDED BY THE COPYRIGHT HOLDERS AND CONTRIBUTORS "AS IS" AND ANY EXPRESS OR I
  25:C:/Workspaces/DAVE-4.4.2-64Bit/fh-kaernten/DAVE_M2M_1/XMC4500_MTSR_Start_002/Libraries/XMCLib/inc\xmc_rtc.h ****  * INCLUDING, BUT NOT LIMITED TO, THE IMPLIED WARRANTIES OF MERCHANTABILITY AND FITNESS FOR A PARTI
  26:C:/Workspaces/DAVE-4.4.2-64Bit/fh-kaernten/DAVE_M2M_1/XMC4500_MTSR_Start_002/Libraries/XMCLib/inc\xmc_rtc.h ****  * DISCLAIMED. IN NO EVENT SHALL THE COPYRIGHT HOLDER OR CONTRIBUTORS BE LIABLE  FOR ANY DIRECT, IN
  27:C:/Workspaces/DAVE-4.4.2-64Bit/fh-kaernten/DAVE_M2M_1/XMC4500_MTSR_Start_002/Libraries/XMCLib/inc\xmc_rtc.h ****  * SPECIAL, EXEMPLARY, OR CONSEQUENTIAL DAMAGES (INCLUDING, BUT NOT LIMITED TO, PROCUREMENT OF SUBS
  28:C:/Workspaces/DAVE-4.4.2-64Bit/fh-kaernten/DAVE_M2M_1/XMC4500_MTSR_Start_002/Libraries/XMCLib/inc\xmc_rtc.h ****  * SERVICES; LOSS OF USE, DATA, OR PROFITS; OR BUSINESS INTERRUPTION) HOWEVER CAUSED AND ON ANY THE
  29:C:/Workspaces/DAVE-4.4.2-64Bit/fh-kaernten/DAVE_M2M_1/XMC4500_MTSR_Start_002/Libraries/XMCLib/inc\xmc_rtc.h ****  * WHETHER IN CONTRACT, STRICT LIABILITY,OR TORT (INCLUDING NEGLIGENCE OR OTHERWISE) ARISING IN ANY
  30:C:/Workspaces/DAVE-4.4.2-64Bit/fh-kaernten/DAVE_M2M_1/XMC4500_MTSR_Start_002/Libraries/XMCLib/inc\xmc_rtc.h ****  * OF THIS SOFTWARE, EVEN IF ADVISED OF THE POSSIBILITY OF SUCH DAMAGE.                            
  31:C:/Workspaces/DAVE-4.4.2-64Bit/fh-kaernten/DAVE_M2M_1/XMC4500_MTSR_Start_002/Libraries/XMCLib/inc\xmc_rtc.h ****  *                                                                              
  32:C:/Workspaces/DAVE-4.4.2-64Bit/fh-kaernten/DAVE_M2M_1/XMC4500_MTSR_Start_002/Libraries/XMCLib/inc\xmc_rtc.h ****  * To improve the quality of the software, users are encouraged to share modifications, enhancement
  33:C:/Workspaces/DAVE-4.4.2-64Bit/fh-kaernten/DAVE_M2M_1/XMC4500_MTSR_Start_002/Libraries/XMCLib/inc\xmc_rtc.h ****  * Infineon Technologies AG dave@infineon.com).                                                    
  34:C:/Workspaces/DAVE-4.4.2-64Bit/fh-kaernten/DAVE_M2M_1/XMC4500_MTSR_Start_002/Libraries/XMCLib/inc\xmc_rtc.h ****  **************************************************************************************************
  35:C:/Workspaces/DAVE-4.4.2-64Bit/fh-kaernten/DAVE_M2M_1/XMC4500_MTSR_Start_002/Libraries/XMCLib/inc\xmc_rtc.h ****  *
  36:C:/Workspaces/DAVE-4.4.2-64Bit/fh-kaernten/DAVE_M2M_1/XMC4500_MTSR_Start_002/Libraries/XMCLib/inc\xmc_rtc.h ****  * Change History
  37:C:/Workspaces/DAVE-4.4.2-64Bit/fh-kaernten/DAVE_M2M_1/XMC4500_MTSR_Start_002/Libraries/XMCLib/inc\xmc_rtc.h ****  * --------------
  38:C:/Workspaces/DAVE-4.4.2-64Bit/fh-kaernten/DAVE_M2M_1/XMC4500_MTSR_Start_002/Libraries/XMCLib/inc\xmc_rtc.h ****  *
  39:C:/Workspaces/DAVE-4.4.2-64Bit/fh-kaernten/DAVE_M2M_1/XMC4500_MTSR_Start_002/Libraries/XMCLib/inc\xmc_rtc.h ****  * 2015-02-20:
  40:C:/Workspaces/DAVE-4.4.2-64Bit/fh-kaernten/DAVE_M2M_1/XMC4500_MTSR_Start_002/Libraries/XMCLib/inc\xmc_rtc.h ****  *     - Initial
  41:C:/Workspaces/DAVE-4.4.2-64Bit/fh-kaernten/DAVE_M2M_1/XMC4500_MTSR_Start_002/Libraries/XMCLib/inc\xmc_rtc.h ****  *      
  42:C:/Workspaces/DAVE-4.4.2-64Bit/fh-kaernten/DAVE_M2M_1/XMC4500_MTSR_Start_002/Libraries/XMCLib/inc\xmc_rtc.h ****  * 2015-05-20:
  43:C:/Workspaces/DAVE-4.4.2-64Bit/fh-kaernten/DAVE_M2M_1/XMC4500_MTSR_Start_002/Libraries/XMCLib/inc\xmc_rtc.h ****  *     - Documentation updates <br>
  44:C:/Workspaces/DAVE-4.4.2-64Bit/fh-kaernten/DAVE_M2M_1/XMC4500_MTSR_Start_002/Libraries/XMCLib/inc\xmc_rtc.h ****  *     - In xmc1_rtc file XMC_RTC_Init function
  45:C:/Workspaces/DAVE-4.4.2-64Bit/fh-kaernten/DAVE_M2M_1/XMC4500_MTSR_Start_002/Libraries/XMCLib/inc\xmc_rtc.h ****  *       is modified by adding the RTC running condition check
  46:C:/Workspaces/DAVE-4.4.2-64Bit/fh-kaernten/DAVE_M2M_1/XMC4500_MTSR_Start_002/Libraries/XMCLib/inc\xmc_rtc.h ****  *   
  47:C:/Workspaces/DAVE-4.4.2-64Bit/fh-kaernten/DAVE_M2M_1/XMC4500_MTSR_Start_002/Libraries/XMCLib/inc\xmc_rtc.h ****  * 2015-06-20:
  48:C:/Workspaces/DAVE-4.4.2-64Bit/fh-kaernten/DAVE_M2M_1/XMC4500_MTSR_Start_002/Libraries/XMCLib/inc\xmc_rtc.h ****  *     - Removed version macros and declaration of GetDriverVersion API
  49:C:/Workspaces/DAVE-4.4.2-64Bit/fh-kaernten/DAVE_M2M_1/XMC4500_MTSR_Start_002/Libraries/XMCLib/inc\xmc_rtc.h ****  * @endcond 
  50:C:/Workspaces/DAVE-4.4.2-64Bit/fh-kaernten/DAVE_M2M_1/XMC4500_MTSR_Start_002/Libraries/XMCLib/inc\xmc_rtc.h ****  *
  51:C:/Workspaces/DAVE-4.4.2-64Bit/fh-kaernten/DAVE_M2M_1/XMC4500_MTSR_Start_002/Libraries/XMCLib/inc\xmc_rtc.h ****  */
  52:C:/Workspaces/DAVE-4.4.2-64Bit/fh-kaernten/DAVE_M2M_1/XMC4500_MTSR_Start_002/Libraries/XMCLib/inc\xmc_rtc.h **** 
  53:C:/Workspaces/DAVE-4.4.2-64Bit/fh-kaernten/DAVE_M2M_1/XMC4500_MTSR_Start_002/Libraries/XMCLib/inc\xmc_rtc.h **** #ifndef XMC_RTC_H
  54:C:/Workspaces/DAVE-4.4.2-64Bit/fh-kaernten/DAVE_M2M_1/XMC4500_MTSR_Start_002/Libraries/XMCLib/inc\xmc_rtc.h **** #define XMC_RTC_H
  55:C:/Workspaces/DAVE-4.4.2-64Bit/fh-kaernten/DAVE_M2M_1/XMC4500_MTSR_Start_002/Libraries/XMCLib/inc\xmc_rtc.h **** 
  56:C:/Workspaces/DAVE-4.4.2-64Bit/fh-kaernten/DAVE_M2M_1/XMC4500_MTSR_Start_002/Libraries/XMCLib/inc\xmc_rtc.h **** /**************************************************************************************************
  57:C:/Workspaces/DAVE-4.4.2-64Bit/fh-kaernten/DAVE_M2M_1/XMC4500_MTSR_Start_002/Libraries/XMCLib/inc\xmc_rtc.h ****  * HEADER FILES
  58:C:/Workspaces/DAVE-4.4.2-64Bit/fh-kaernten/DAVE_M2M_1/XMC4500_MTSR_Start_002/Libraries/XMCLib/inc\xmc_rtc.h ****  **************************************************************************************************
  59:C:/Workspaces/DAVE-4.4.2-64Bit/fh-kaernten/DAVE_M2M_1/XMC4500_MTSR_Start_002/Libraries/XMCLib/inc\xmc_rtc.h **** 
  60:C:/Workspaces/DAVE-4.4.2-64Bit/fh-kaernten/DAVE_M2M_1/XMC4500_MTSR_Start_002/Libraries/XMCLib/inc\xmc_rtc.h **** #include <xmc_common.h>
  61:C:/Workspaces/DAVE-4.4.2-64Bit/fh-kaernten/DAVE_M2M_1/XMC4500_MTSR_Start_002/Libraries/XMCLib/inc\xmc_rtc.h **** #include <time.h>
  62:C:/Workspaces/DAVE-4.4.2-64Bit/fh-kaernten/DAVE_M2M_1/XMC4500_MTSR_Start_002/Libraries/XMCLib/inc\xmc_rtc.h **** #if UC_FAMILY == XMC1
  63:C:/Workspaces/DAVE-4.4.2-64Bit/fh-kaernten/DAVE_M2M_1/XMC4500_MTSR_Start_002/Libraries/XMCLib/inc\xmc_rtc.h **** #include "xmc1_rtc.h"
  64:C:/Workspaces/DAVE-4.4.2-64Bit/fh-kaernten/DAVE_M2M_1/XMC4500_MTSR_Start_002/Libraries/XMCLib/inc\xmc_rtc.h **** #endif
  65:C:/Workspaces/DAVE-4.4.2-64Bit/fh-kaernten/DAVE_M2M_1/XMC4500_MTSR_Start_002/Libraries/XMCLib/inc\xmc_rtc.h **** 
  66:C:/Workspaces/DAVE-4.4.2-64Bit/fh-kaernten/DAVE_M2M_1/XMC4500_MTSR_Start_002/Libraries/XMCLib/inc\xmc_rtc.h **** #if UC_FAMILY == XMC4
  67:C:/Workspaces/DAVE-4.4.2-64Bit/fh-kaernten/DAVE_M2M_1/XMC4500_MTSR_Start_002/Libraries/XMCLib/inc\xmc_rtc.h **** #include "xmc4_rtc.h"
  68:C:/Workspaces/DAVE-4.4.2-64Bit/fh-kaernten/DAVE_M2M_1/XMC4500_MTSR_Start_002/Libraries/XMCLib/inc\xmc_rtc.h **** #endif
  69:C:/Workspaces/DAVE-4.4.2-64Bit/fh-kaernten/DAVE_M2M_1/XMC4500_MTSR_Start_002/Libraries/XMCLib/inc\xmc_rtc.h **** /**
  70:C:/Workspaces/DAVE-4.4.2-64Bit/fh-kaernten/DAVE_M2M_1/XMC4500_MTSR_Start_002/Libraries/XMCLib/inc\xmc_rtc.h ****  *
  71:C:/Workspaces/DAVE-4.4.2-64Bit/fh-kaernten/DAVE_M2M_1/XMC4500_MTSR_Start_002/Libraries/XMCLib/inc\xmc_rtc.h ****  * @addtogroup XMClib XMC Peripheral Library
  72:C:/Workspaces/DAVE-4.4.2-64Bit/fh-kaernten/DAVE_M2M_1/XMC4500_MTSR_Start_002/Libraries/XMCLib/inc\xmc_rtc.h ****  * @{
  73:C:/Workspaces/DAVE-4.4.2-64Bit/fh-kaernten/DAVE_M2M_1/XMC4500_MTSR_Start_002/Libraries/XMCLib/inc\xmc_rtc.h ****  */
  74:C:/Workspaces/DAVE-4.4.2-64Bit/fh-kaernten/DAVE_M2M_1/XMC4500_MTSR_Start_002/Libraries/XMCLib/inc\xmc_rtc.h **** 
  75:C:/Workspaces/DAVE-4.4.2-64Bit/fh-kaernten/DAVE_M2M_1/XMC4500_MTSR_Start_002/Libraries/XMCLib/inc\xmc_rtc.h **** /**
  76:C:/Workspaces/DAVE-4.4.2-64Bit/fh-kaernten/DAVE_M2M_1/XMC4500_MTSR_Start_002/Libraries/XMCLib/inc\xmc_rtc.h ****  * @addtogroup RTC
  77:C:/Workspaces/DAVE-4.4.2-64Bit/fh-kaernten/DAVE_M2M_1/XMC4500_MTSR_Start_002/Libraries/XMCLib/inc\xmc_rtc.h ****  * @brief RTC driver for XMC microcontroller family.
  78:C:/Workspaces/DAVE-4.4.2-64Bit/fh-kaernten/DAVE_M2M_1/XMC4500_MTSR_Start_002/Libraries/XMCLib/inc\xmc_rtc.h ****  *
  79:C:/Workspaces/DAVE-4.4.2-64Bit/fh-kaernten/DAVE_M2M_1/XMC4500_MTSR_Start_002/Libraries/XMCLib/inc\xmc_rtc.h ****  * Real-time clock (RTC) is a clock that keeps track of the current time. Precise
  80:C:/Workspaces/DAVE-4.4.2-64Bit/fh-kaernten/DAVE_M2M_1/XMC4500_MTSR_Start_002/Libraries/XMCLib/inc\xmc_rtc.h ****  * real time keeping is with a 32.768 KHz external crystal clock or a 32.768 KHz
  81:C:/Workspaces/DAVE-4.4.2-64Bit/fh-kaernten/DAVE_M2M_1/XMC4500_MTSR_Start_002/Libraries/XMCLib/inc\xmc_rtc.h ****  * high precision internal clock. It provides a periodic time based interrupt and
  82:C:/Workspaces/DAVE-4.4.2-64Bit/fh-kaernten/DAVE_M2M_1/XMC4500_MTSR_Start_002/Libraries/XMCLib/inc\xmc_rtc.h ****  * a programmable alarm interrupt on time match. It also supports wakeup from
  83:C:/Workspaces/DAVE-4.4.2-64Bit/fh-kaernten/DAVE_M2M_1/XMC4500_MTSR_Start_002/Libraries/XMCLib/inc\xmc_rtc.h ****  * hibernate.
  84:C:/Workspaces/DAVE-4.4.2-64Bit/fh-kaernten/DAVE_M2M_1/XMC4500_MTSR_Start_002/Libraries/XMCLib/inc\xmc_rtc.h ****  *
  85:C:/Workspaces/DAVE-4.4.2-64Bit/fh-kaernten/DAVE_M2M_1/XMC4500_MTSR_Start_002/Libraries/XMCLib/inc\xmc_rtc.h ****  * The RTC low level driver provides functions to configure and initialize the RTC
  86:C:/Workspaces/DAVE-4.4.2-64Bit/fh-kaernten/DAVE_M2M_1/XMC4500_MTSR_Start_002/Libraries/XMCLib/inc\xmc_rtc.h ****  * hardware peripheral. 
  87:C:/Workspaces/DAVE-4.4.2-64Bit/fh-kaernten/DAVE_M2M_1/XMC4500_MTSR_Start_002/Libraries/XMCLib/inc\xmc_rtc.h ****  * 
  88:C:/Workspaces/DAVE-4.4.2-64Bit/fh-kaernten/DAVE_M2M_1/XMC4500_MTSR_Start_002/Libraries/XMCLib/inc\xmc_rtc.h ****  * @{
  89:C:/Workspaces/DAVE-4.4.2-64Bit/fh-kaernten/DAVE_M2M_1/XMC4500_MTSR_Start_002/Libraries/XMCLib/inc\xmc_rtc.h ****  */
  90:C:/Workspaces/DAVE-4.4.2-64Bit/fh-kaernten/DAVE_M2M_1/XMC4500_MTSR_Start_002/Libraries/XMCLib/inc\xmc_rtc.h **** 
  91:C:/Workspaces/DAVE-4.4.2-64Bit/fh-kaernten/DAVE_M2M_1/XMC4500_MTSR_Start_002/Libraries/XMCLib/inc\xmc_rtc.h **** /**************************************************************************************************
  92:C:/Workspaces/DAVE-4.4.2-64Bit/fh-kaernten/DAVE_M2M_1/XMC4500_MTSR_Start_002/Libraries/XMCLib/inc\xmc_rtc.h ****  * MACROS
  93:C:/Workspaces/DAVE-4.4.2-64Bit/fh-kaernten/DAVE_M2M_1/XMC4500_MTSR_Start_002/Libraries/XMCLib/inc\xmc_rtc.h ****  **************************************************************************************************
  94:C:/Workspaces/DAVE-4.4.2-64Bit/fh-kaernten/DAVE_M2M_1/XMC4500_MTSR_Start_002/Libraries/XMCLib/inc\xmc_rtc.h **** 
  95:C:/Workspaces/DAVE-4.4.2-64Bit/fh-kaernten/DAVE_M2M_1/XMC4500_MTSR_Start_002/Libraries/XMCLib/inc\xmc_rtc.h **** /**************************************************************************************************
  96:C:/Workspaces/DAVE-4.4.2-64Bit/fh-kaernten/DAVE_M2M_1/XMC4500_MTSR_Start_002/Libraries/XMCLib/inc\xmc_rtc.h ****  * ENUMS
  97:C:/Workspaces/DAVE-4.4.2-64Bit/fh-kaernten/DAVE_M2M_1/XMC4500_MTSR_Start_002/Libraries/XMCLib/inc\xmc_rtc.h ****  **************************************************************************************************
  98:C:/Workspaces/DAVE-4.4.2-64Bit/fh-kaernten/DAVE_M2M_1/XMC4500_MTSR_Start_002/Libraries/XMCLib/inc\xmc_rtc.h **** 
  99:C:/Workspaces/DAVE-4.4.2-64Bit/fh-kaernten/DAVE_M2M_1/XMC4500_MTSR_Start_002/Libraries/XMCLib/inc\xmc_rtc.h **** /**
 100:C:/Workspaces/DAVE-4.4.2-64Bit/fh-kaernten/DAVE_M2M_1/XMC4500_MTSR_Start_002/Libraries/XMCLib/inc\xmc_rtc.h ****  *  Status return values for RTC low level driver
 101:C:/Workspaces/DAVE-4.4.2-64Bit/fh-kaernten/DAVE_M2M_1/XMC4500_MTSR_Start_002/Libraries/XMCLib/inc\xmc_rtc.h ****  */
 102:C:/Workspaces/DAVE-4.4.2-64Bit/fh-kaernten/DAVE_M2M_1/XMC4500_MTSR_Start_002/Libraries/XMCLib/inc\xmc_rtc.h **** typedef enum XMC_RTC_STATUS
 103:C:/Workspaces/DAVE-4.4.2-64Bit/fh-kaernten/DAVE_M2M_1/XMC4500_MTSR_Start_002/Libraries/XMCLib/inc\xmc_rtc.h **** {
 104:C:/Workspaces/DAVE-4.4.2-64Bit/fh-kaernten/DAVE_M2M_1/XMC4500_MTSR_Start_002/Libraries/XMCLib/inc\xmc_rtc.h ****   XMC_RTC_STATUS_OK    = 0U, /**< Operation successful */
 105:C:/Workspaces/DAVE-4.4.2-64Bit/fh-kaernten/DAVE_M2M_1/XMC4500_MTSR_Start_002/Libraries/XMCLib/inc\xmc_rtc.h ****   XMC_RTC_STATUS_ERROR = 1U, /**< Operation unsuccessful */
 106:C:/Workspaces/DAVE-4.4.2-64Bit/fh-kaernten/DAVE_M2M_1/XMC4500_MTSR_Start_002/Libraries/XMCLib/inc\xmc_rtc.h ****   XMC_RTC_STATUS_BUSY  = 2U  /**< Busy with a previous request */
 107:C:/Workspaces/DAVE-4.4.2-64Bit/fh-kaernten/DAVE_M2M_1/XMC4500_MTSR_Start_002/Libraries/XMCLib/inc\xmc_rtc.h **** } XMC_RTC_STATUS_t;
 108:C:/Workspaces/DAVE-4.4.2-64Bit/fh-kaernten/DAVE_M2M_1/XMC4500_MTSR_Start_002/Libraries/XMCLib/inc\xmc_rtc.h **** 
 109:C:/Workspaces/DAVE-4.4.2-64Bit/fh-kaernten/DAVE_M2M_1/XMC4500_MTSR_Start_002/Libraries/XMCLib/inc\xmc_rtc.h **** /**
 110:C:/Workspaces/DAVE-4.4.2-64Bit/fh-kaernten/DAVE_M2M_1/XMC4500_MTSR_Start_002/Libraries/XMCLib/inc\xmc_rtc.h ****  * Events which enables interrupt request generation
 111:C:/Workspaces/DAVE-4.4.2-64Bit/fh-kaernten/DAVE_M2M_1/XMC4500_MTSR_Start_002/Libraries/XMCLib/inc\xmc_rtc.h ****  */
 112:C:/Workspaces/DAVE-4.4.2-64Bit/fh-kaernten/DAVE_M2M_1/XMC4500_MTSR_Start_002/Libraries/XMCLib/inc\xmc_rtc.h **** typedef enum XMC_RTC_EVENT
 113:C:/Workspaces/DAVE-4.4.2-64Bit/fh-kaernten/DAVE_M2M_1/XMC4500_MTSR_Start_002/Libraries/XMCLib/inc\xmc_rtc.h **** {
 114:C:/Workspaces/DAVE-4.4.2-64Bit/fh-kaernten/DAVE_M2M_1/XMC4500_MTSR_Start_002/Libraries/XMCLib/inc\xmc_rtc.h ****   XMC_RTC_EVENT_PERIODIC_SECONDS = RTC_MSKSR_MPSE_Msk, /**< Mask value to enable an event on period
 115:C:/Workspaces/DAVE-4.4.2-64Bit/fh-kaernten/DAVE_M2M_1/XMC4500_MTSR_Start_002/Libraries/XMCLib/inc\xmc_rtc.h ****   XMC_RTC_EVENT_PERIODIC_MINUTES = RTC_MSKSR_MPMI_Msk, /**< Mask value to enable an event on period
 116:C:/Workspaces/DAVE-4.4.2-64Bit/fh-kaernten/DAVE_M2M_1/XMC4500_MTSR_Start_002/Libraries/XMCLib/inc\xmc_rtc.h ****   XMC_RTC_EVENT_PERIODIC_HOURS   = RTC_MSKSR_MPHO_Msk, /**< Mask value to enable an event on period
 117:C:/Workspaces/DAVE-4.4.2-64Bit/fh-kaernten/DAVE_M2M_1/XMC4500_MTSR_Start_002/Libraries/XMCLib/inc\xmc_rtc.h ****   XMC_RTC_EVENT_PERIODIC_DAYS    = RTC_MSKSR_MPDA_Msk, /**< Mask value to enable an event on period
 118:C:/Workspaces/DAVE-4.4.2-64Bit/fh-kaernten/DAVE_M2M_1/XMC4500_MTSR_Start_002/Libraries/XMCLib/inc\xmc_rtc.h ****   XMC_RTC_EVENT_PERIODIC_MONTHS  = RTC_MSKSR_MPMO_Msk, /**< Mask value to enable an event on period
 119:C:/Workspaces/DAVE-4.4.2-64Bit/fh-kaernten/DAVE_M2M_1/XMC4500_MTSR_Start_002/Libraries/XMCLib/inc\xmc_rtc.h ****   XMC_RTC_EVENT_PERIODIC_YEARS   = RTC_MSKSR_MPYE_Msk, /**< Mask value to enable an event on period
 120:C:/Workspaces/DAVE-4.4.2-64Bit/fh-kaernten/DAVE_M2M_1/XMC4500_MTSR_Start_002/Libraries/XMCLib/inc\xmc_rtc.h ****   XMC_RTC_EVENT_ALARM            = RTC_MSKSR_MAI_Msk   /**< Mask value to enable an event on period
 121:C:/Workspaces/DAVE-4.4.2-64Bit/fh-kaernten/DAVE_M2M_1/XMC4500_MTSR_Start_002/Libraries/XMCLib/inc\xmc_rtc.h **** } XMC_RTC_EVENT_t;
 122:C:/Workspaces/DAVE-4.4.2-64Bit/fh-kaernten/DAVE_M2M_1/XMC4500_MTSR_Start_002/Libraries/XMCLib/inc\xmc_rtc.h **** 
 123:C:/Workspaces/DAVE-4.4.2-64Bit/fh-kaernten/DAVE_M2M_1/XMC4500_MTSR_Start_002/Libraries/XMCLib/inc\xmc_rtc.h **** /**
 124:C:/Workspaces/DAVE-4.4.2-64Bit/fh-kaernten/DAVE_M2M_1/XMC4500_MTSR_Start_002/Libraries/XMCLib/inc\xmc_rtc.h ****  *  Months used to program the date  
 125:C:/Workspaces/DAVE-4.4.2-64Bit/fh-kaernten/DAVE_M2M_1/XMC4500_MTSR_Start_002/Libraries/XMCLib/inc\xmc_rtc.h ****  */
 126:C:/Workspaces/DAVE-4.4.2-64Bit/fh-kaernten/DAVE_M2M_1/XMC4500_MTSR_Start_002/Libraries/XMCLib/inc\xmc_rtc.h **** typedef enum XMC_RTC_MONTH
 127:C:/Workspaces/DAVE-4.4.2-64Bit/fh-kaernten/DAVE_M2M_1/XMC4500_MTSR_Start_002/Libraries/XMCLib/inc\xmc_rtc.h **** {
 128:C:/Workspaces/DAVE-4.4.2-64Bit/fh-kaernten/DAVE_M2M_1/XMC4500_MTSR_Start_002/Libraries/XMCLib/inc\xmc_rtc.h ****   XMC_RTC_MONTH_JANUARY   = 0U, 
 129:C:/Workspaces/DAVE-4.4.2-64Bit/fh-kaernten/DAVE_M2M_1/XMC4500_MTSR_Start_002/Libraries/XMCLib/inc\xmc_rtc.h ****   XMC_RTC_MONTH_FEBRUARY  = 1U,     
 130:C:/Workspaces/DAVE-4.4.2-64Bit/fh-kaernten/DAVE_M2M_1/XMC4500_MTSR_Start_002/Libraries/XMCLib/inc\xmc_rtc.h ****   XMC_RTC_MONTH_MARCH     = 2U,         
 131:C:/Workspaces/DAVE-4.4.2-64Bit/fh-kaernten/DAVE_M2M_1/XMC4500_MTSR_Start_002/Libraries/XMCLib/inc\xmc_rtc.h ****   XMC_RTC_MONTH_APRIL     = 3U,       
 132:C:/Workspaces/DAVE-4.4.2-64Bit/fh-kaernten/DAVE_M2M_1/XMC4500_MTSR_Start_002/Libraries/XMCLib/inc\xmc_rtc.h ****   XMC_RTC_MONTH_MAY       = 4U,         
 133:C:/Workspaces/DAVE-4.4.2-64Bit/fh-kaernten/DAVE_M2M_1/XMC4500_MTSR_Start_002/Libraries/XMCLib/inc\xmc_rtc.h ****   XMC_RTC_MONTH_JUNE      = 5U,         
 134:C:/Workspaces/DAVE-4.4.2-64Bit/fh-kaernten/DAVE_M2M_1/XMC4500_MTSR_Start_002/Libraries/XMCLib/inc\xmc_rtc.h ****   XMC_RTC_MONTH_JULY      = 6U,           
 135:C:/Workspaces/DAVE-4.4.2-64Bit/fh-kaernten/DAVE_M2M_1/XMC4500_MTSR_Start_002/Libraries/XMCLib/inc\xmc_rtc.h ****   XMC_RTC_MONTH_AUGUST    = 7U,         
 136:C:/Workspaces/DAVE-4.4.2-64Bit/fh-kaernten/DAVE_M2M_1/XMC4500_MTSR_Start_002/Libraries/XMCLib/inc\xmc_rtc.h ****   XMC_RTC_MONTH_SEPTEMBER = 8U,    
 137:C:/Workspaces/DAVE-4.4.2-64Bit/fh-kaernten/DAVE_M2M_1/XMC4500_MTSR_Start_002/Libraries/XMCLib/inc\xmc_rtc.h ****   XMC_RTC_MONTH_OCTOBER   = 9U,      
 138:C:/Workspaces/DAVE-4.4.2-64Bit/fh-kaernten/DAVE_M2M_1/XMC4500_MTSR_Start_002/Libraries/XMCLib/inc\xmc_rtc.h ****   XMC_RTC_MONTH_NOVEMBER  = 10U,     
 139:C:/Workspaces/DAVE-4.4.2-64Bit/fh-kaernten/DAVE_M2M_1/XMC4500_MTSR_Start_002/Libraries/XMCLib/inc\xmc_rtc.h ****   XMC_RTC_MONTH_DECEMBER  = 11U     
 140:C:/Workspaces/DAVE-4.4.2-64Bit/fh-kaernten/DAVE_M2M_1/XMC4500_MTSR_Start_002/Libraries/XMCLib/inc\xmc_rtc.h **** } XMC_RTC_MONTH_t;
 141:C:/Workspaces/DAVE-4.4.2-64Bit/fh-kaernten/DAVE_M2M_1/XMC4500_MTSR_Start_002/Libraries/XMCLib/inc\xmc_rtc.h **** 
 142:C:/Workspaces/DAVE-4.4.2-64Bit/fh-kaernten/DAVE_M2M_1/XMC4500_MTSR_Start_002/Libraries/XMCLib/inc\xmc_rtc.h **** /**
 143:C:/Workspaces/DAVE-4.4.2-64Bit/fh-kaernten/DAVE_M2M_1/XMC4500_MTSR_Start_002/Libraries/XMCLib/inc\xmc_rtc.h ****  *  Week days used program the date 
 144:C:/Workspaces/DAVE-4.4.2-64Bit/fh-kaernten/DAVE_M2M_1/XMC4500_MTSR_Start_002/Libraries/XMCLib/inc\xmc_rtc.h ****  */
 145:C:/Workspaces/DAVE-4.4.2-64Bit/fh-kaernten/DAVE_M2M_1/XMC4500_MTSR_Start_002/Libraries/XMCLib/inc\xmc_rtc.h **** typedef enum XMC_RTC_WEEKDAY
 146:C:/Workspaces/DAVE-4.4.2-64Bit/fh-kaernten/DAVE_M2M_1/XMC4500_MTSR_Start_002/Libraries/XMCLib/inc\xmc_rtc.h **** {
 147:C:/Workspaces/DAVE-4.4.2-64Bit/fh-kaernten/DAVE_M2M_1/XMC4500_MTSR_Start_002/Libraries/XMCLib/inc\xmc_rtc.h ****   XMC_RTC_WEEKDAY_SUNDAY    = 0U, 
 148:C:/Workspaces/DAVE-4.4.2-64Bit/fh-kaernten/DAVE_M2M_1/XMC4500_MTSR_Start_002/Libraries/XMCLib/inc\xmc_rtc.h ****   XMC_RTC_WEEKDAY_MONDAY    = 1U,      
 149:C:/Workspaces/DAVE-4.4.2-64Bit/fh-kaernten/DAVE_M2M_1/XMC4500_MTSR_Start_002/Libraries/XMCLib/inc\xmc_rtc.h ****   XMC_RTC_WEEKDAY_TUESDAY   = 2U,      
 150:C:/Workspaces/DAVE-4.4.2-64Bit/fh-kaernten/DAVE_M2M_1/XMC4500_MTSR_Start_002/Libraries/XMCLib/inc\xmc_rtc.h ****   XMC_RTC_WEEKDAY_WEDNESDAY = 3U,    
 151:C:/Workspaces/DAVE-4.4.2-64Bit/fh-kaernten/DAVE_M2M_1/XMC4500_MTSR_Start_002/Libraries/XMCLib/inc\xmc_rtc.h ****   XMC_RTC_WEEKDAY_THURSDAY  = 4U,     
 152:C:/Workspaces/DAVE-4.4.2-64Bit/fh-kaernten/DAVE_M2M_1/XMC4500_MTSR_Start_002/Libraries/XMCLib/inc\xmc_rtc.h ****   XMC_RTC_WEEKDAY_FRIDAY    = 5U,       
 153:C:/Workspaces/DAVE-4.4.2-64Bit/fh-kaernten/DAVE_M2M_1/XMC4500_MTSR_Start_002/Libraries/XMCLib/inc\xmc_rtc.h ****   XMC_RTC_WEEKDAY_SATURDAY  = 6U      
 154:C:/Workspaces/DAVE-4.4.2-64Bit/fh-kaernten/DAVE_M2M_1/XMC4500_MTSR_Start_002/Libraries/XMCLib/inc\xmc_rtc.h **** } XMC_RTC_WEEKDAY_t;
 155:C:/Workspaces/DAVE-4.4.2-64Bit/fh-kaernten/DAVE_M2M_1/XMC4500_MTSR_Start_002/Libraries/XMCLib/inc\xmc_rtc.h **** 
 156:C:/Workspaces/DAVE-4.4.2-64Bit/fh-kaernten/DAVE_M2M_1/XMC4500_MTSR_Start_002/Libraries/XMCLib/inc\xmc_rtc.h **** /**************************************************************************************************
 157:C:/Workspaces/DAVE-4.4.2-64Bit/fh-kaernten/DAVE_M2M_1/XMC4500_MTSR_Start_002/Libraries/XMCLib/inc\xmc_rtc.h ****  * DATA STRUCTURES
 158:C:/Workspaces/DAVE-4.4.2-64Bit/fh-kaernten/DAVE_M2M_1/XMC4500_MTSR_Start_002/Libraries/XMCLib/inc\xmc_rtc.h ****  **************************************************************************************************
 159:C:/Workspaces/DAVE-4.4.2-64Bit/fh-kaernten/DAVE_M2M_1/XMC4500_MTSR_Start_002/Libraries/XMCLib/inc\xmc_rtc.h **** /*Anonymous structure/union guard start*/
 160:C:/Workspaces/DAVE-4.4.2-64Bit/fh-kaernten/DAVE_M2M_1/XMC4500_MTSR_Start_002/Libraries/XMCLib/inc\xmc_rtc.h **** #if defined(__CC_ARM)
 161:C:/Workspaces/DAVE-4.4.2-64Bit/fh-kaernten/DAVE_M2M_1/XMC4500_MTSR_Start_002/Libraries/XMCLib/inc\xmc_rtc.h ****   #pragma push
 162:C:/Workspaces/DAVE-4.4.2-64Bit/fh-kaernten/DAVE_M2M_1/XMC4500_MTSR_Start_002/Libraries/XMCLib/inc\xmc_rtc.h ****   #pragma anon_unions
 163:C:/Workspaces/DAVE-4.4.2-64Bit/fh-kaernten/DAVE_M2M_1/XMC4500_MTSR_Start_002/Libraries/XMCLib/inc\xmc_rtc.h **** #elif defined(__TASKING__)
 164:C:/Workspaces/DAVE-4.4.2-64Bit/fh-kaernten/DAVE_M2M_1/XMC4500_MTSR_Start_002/Libraries/XMCLib/inc\xmc_rtc.h ****   #pragma warning 586
 165:C:/Workspaces/DAVE-4.4.2-64Bit/fh-kaernten/DAVE_M2M_1/XMC4500_MTSR_Start_002/Libraries/XMCLib/inc\xmc_rtc.h **** #endif
 166:C:/Workspaces/DAVE-4.4.2-64Bit/fh-kaernten/DAVE_M2M_1/XMC4500_MTSR_Start_002/Libraries/XMCLib/inc\xmc_rtc.h **** 
 167:C:/Workspaces/DAVE-4.4.2-64Bit/fh-kaernten/DAVE_M2M_1/XMC4500_MTSR_Start_002/Libraries/XMCLib/inc\xmc_rtc.h **** 
 168:C:/Workspaces/DAVE-4.4.2-64Bit/fh-kaernten/DAVE_M2M_1/XMC4500_MTSR_Start_002/Libraries/XMCLib/inc\xmc_rtc.h **** /**
 169:C:/Workspaces/DAVE-4.4.2-64Bit/fh-kaernten/DAVE_M2M_1/XMC4500_MTSR_Start_002/Libraries/XMCLib/inc\xmc_rtc.h ****  * Alarm time values of RTC  <br>
 170:C:/Workspaces/DAVE-4.4.2-64Bit/fh-kaernten/DAVE_M2M_1/XMC4500_MTSR_Start_002/Libraries/XMCLib/inc\xmc_rtc.h ****  *
 171:C:/Workspaces/DAVE-4.4.2-64Bit/fh-kaernten/DAVE_M2M_1/XMC4500_MTSR_Start_002/Libraries/XMCLib/inc\xmc_rtc.h ****  * The structure presents a convenient way to set/obtain the 
 172:C:/Workspaces/DAVE-4.4.2-64Bit/fh-kaernten/DAVE_M2M_1/XMC4500_MTSR_Start_002/Libraries/XMCLib/inc\xmc_rtc.h ****  * alarm time values for seconds, minutes, hours, days, month and year of RTC. 
 173:C:/Workspaces/DAVE-4.4.2-64Bit/fh-kaernten/DAVE_M2M_1/XMC4500_MTSR_Start_002/Libraries/XMCLib/inc\xmc_rtc.h ****  * The XMC_RTC_SetAlarm() and XMC_RTC_GetAlarm() can be
 174:C:/Workspaces/DAVE-4.4.2-64Bit/fh-kaernten/DAVE_M2M_1/XMC4500_MTSR_Start_002/Libraries/XMCLib/inc\xmc_rtc.h ****  * used to populate the structure with the alarm time value of
 175:C:/Workspaces/DAVE-4.4.2-64Bit/fh-kaernten/DAVE_M2M_1/XMC4500_MTSR_Start_002/Libraries/XMCLib/inc\xmc_rtc.h ****  * RTC 
 176:C:/Workspaces/DAVE-4.4.2-64Bit/fh-kaernten/DAVE_M2M_1/XMC4500_MTSR_Start_002/Libraries/XMCLib/inc\xmc_rtc.h ****  */ 
 177:C:/Workspaces/DAVE-4.4.2-64Bit/fh-kaernten/DAVE_M2M_1/XMC4500_MTSR_Start_002/Libraries/XMCLib/inc\xmc_rtc.h **** typedef struct XMC_RTC_ALARM
 178:C:/Workspaces/DAVE-4.4.2-64Bit/fh-kaernten/DAVE_M2M_1/XMC4500_MTSR_Start_002/Libraries/XMCLib/inc\xmc_rtc.h **** {
 179:C:/Workspaces/DAVE-4.4.2-64Bit/fh-kaernten/DAVE_M2M_1/XMC4500_MTSR_Start_002/Libraries/XMCLib/inc\xmc_rtc.h ****   union
 180:C:/Workspaces/DAVE-4.4.2-64Bit/fh-kaernten/DAVE_M2M_1/XMC4500_MTSR_Start_002/Libraries/XMCLib/inc\xmc_rtc.h ****   {
 181:C:/Workspaces/DAVE-4.4.2-64Bit/fh-kaernten/DAVE_M2M_1/XMC4500_MTSR_Start_002/Libraries/XMCLib/inc\xmc_rtc.h **** 	  uint32_t raw0;
 182:C:/Workspaces/DAVE-4.4.2-64Bit/fh-kaernten/DAVE_M2M_1/XMC4500_MTSR_Start_002/Libraries/XMCLib/inc\xmc_rtc.h **** 	  struct
 183:C:/Workspaces/DAVE-4.4.2-64Bit/fh-kaernten/DAVE_M2M_1/XMC4500_MTSR_Start_002/Libraries/XMCLib/inc\xmc_rtc.h **** 	  {
 184:C:/Workspaces/DAVE-4.4.2-64Bit/fh-kaernten/DAVE_M2M_1/XMC4500_MTSR_Start_002/Libraries/XMCLib/inc\xmc_rtc.h **** 	    uint32_t seconds  : 6; /**< Alarm seconds compare value (0-59: Above this causes this bitfield
 185:C:/Workspaces/DAVE-4.4.2-64Bit/fh-kaernten/DAVE_M2M_1/XMC4500_MTSR_Start_002/Libraries/XMCLib/inc\xmc_rtc.h **** 	    uint32_t          : 2; 
 186:C:/Workspaces/DAVE-4.4.2-64Bit/fh-kaernten/DAVE_M2M_1/XMC4500_MTSR_Start_002/Libraries/XMCLib/inc\xmc_rtc.h **** 	    uint32_t minutes  : 6; /**< Alarm minutes compare value (0-59: Above this causes this bitfield
 187:C:/Workspaces/DAVE-4.4.2-64Bit/fh-kaernten/DAVE_M2M_1/XMC4500_MTSR_Start_002/Libraries/XMCLib/inc\xmc_rtc.h **** 	    uint32_t          : 2;
 188:C:/Workspaces/DAVE-4.4.2-64Bit/fh-kaernten/DAVE_M2M_1/XMC4500_MTSR_Start_002/Libraries/XMCLib/inc\xmc_rtc.h **** 	    uint32_t hours    : 5; /**< Alarm hours compare value   (0-23: Above this causes this bitfield
 189:C:/Workspaces/DAVE-4.4.2-64Bit/fh-kaernten/DAVE_M2M_1/XMC4500_MTSR_Start_002/Libraries/XMCLib/inc\xmc_rtc.h **** 	    uint32_t          : 3;
 190:C:/Workspaces/DAVE-4.4.2-64Bit/fh-kaernten/DAVE_M2M_1/XMC4500_MTSR_Start_002/Libraries/XMCLib/inc\xmc_rtc.h **** 	    uint32_t days     : 5; /**< Alarm days compare value (0-Actual days of month: Above this cause
 191:C:/Workspaces/DAVE-4.4.2-64Bit/fh-kaernten/DAVE_M2M_1/XMC4500_MTSR_Start_002/Libraries/XMCLib/inc\xmc_rtc.h **** 	    uint32_t          : 3;
 192:C:/Workspaces/DAVE-4.4.2-64Bit/fh-kaernten/DAVE_M2M_1/XMC4500_MTSR_Start_002/Libraries/XMCLib/inc\xmc_rtc.h **** 	  };
 193:C:/Workspaces/DAVE-4.4.2-64Bit/fh-kaernten/DAVE_M2M_1/XMC4500_MTSR_Start_002/Libraries/XMCLib/inc\xmc_rtc.h ****   };
 194:C:/Workspaces/DAVE-4.4.2-64Bit/fh-kaernten/DAVE_M2M_1/XMC4500_MTSR_Start_002/Libraries/XMCLib/inc\xmc_rtc.h **** 
 195:C:/Workspaces/DAVE-4.4.2-64Bit/fh-kaernten/DAVE_M2M_1/XMC4500_MTSR_Start_002/Libraries/XMCLib/inc\xmc_rtc.h ****   union
 196:C:/Workspaces/DAVE-4.4.2-64Bit/fh-kaernten/DAVE_M2M_1/XMC4500_MTSR_Start_002/Libraries/XMCLib/inc\xmc_rtc.h ****   {
 197:C:/Workspaces/DAVE-4.4.2-64Bit/fh-kaernten/DAVE_M2M_1/XMC4500_MTSR_Start_002/Libraries/XMCLib/inc\xmc_rtc.h ****     uint32_t raw1;
 198:C:/Workspaces/DAVE-4.4.2-64Bit/fh-kaernten/DAVE_M2M_1/XMC4500_MTSR_Start_002/Libraries/XMCLib/inc\xmc_rtc.h **** 	  struct
 199:C:/Workspaces/DAVE-4.4.2-64Bit/fh-kaernten/DAVE_M2M_1/XMC4500_MTSR_Start_002/Libraries/XMCLib/inc\xmc_rtc.h **** 	  {
 200:C:/Workspaces/DAVE-4.4.2-64Bit/fh-kaernten/DAVE_M2M_1/XMC4500_MTSR_Start_002/Libraries/XMCLib/inc\xmc_rtc.h **** 	    uint32_t          : 8;
 201:C:/Workspaces/DAVE-4.4.2-64Bit/fh-kaernten/DAVE_M2M_1/XMC4500_MTSR_Start_002/Libraries/XMCLib/inc\xmc_rtc.h **** 	    uint32_t month    : 4; /**< Alarm month compare value (0-11: Above this causes this bitfield t
 202:C:/Workspaces/DAVE-4.4.2-64Bit/fh-kaernten/DAVE_M2M_1/XMC4500_MTSR_Start_002/Libraries/XMCLib/inc\xmc_rtc.h **** 	    uint32_t          : 4;
 203:C:/Workspaces/DAVE-4.4.2-64Bit/fh-kaernten/DAVE_M2M_1/XMC4500_MTSR_Start_002/Libraries/XMCLib/inc\xmc_rtc.h **** 	    uint32_t year     : 16; /**< Alarm year compare value */ 
 204:C:/Workspaces/DAVE-4.4.2-64Bit/fh-kaernten/DAVE_M2M_1/XMC4500_MTSR_Start_002/Libraries/XMCLib/inc\xmc_rtc.h **** 	  };
 205:C:/Workspaces/DAVE-4.4.2-64Bit/fh-kaernten/DAVE_M2M_1/XMC4500_MTSR_Start_002/Libraries/XMCLib/inc\xmc_rtc.h ****   };
 206:C:/Workspaces/DAVE-4.4.2-64Bit/fh-kaernten/DAVE_M2M_1/XMC4500_MTSR_Start_002/Libraries/XMCLib/inc\xmc_rtc.h **** } XMC_RTC_ALARM_t;
 207:C:/Workspaces/DAVE-4.4.2-64Bit/fh-kaernten/DAVE_M2M_1/XMC4500_MTSR_Start_002/Libraries/XMCLib/inc\xmc_rtc.h **** 
 208:C:/Workspaces/DAVE-4.4.2-64Bit/fh-kaernten/DAVE_M2M_1/XMC4500_MTSR_Start_002/Libraries/XMCLib/inc\xmc_rtc.h **** /**
 209:C:/Workspaces/DAVE-4.4.2-64Bit/fh-kaernten/DAVE_M2M_1/XMC4500_MTSR_Start_002/Libraries/XMCLib/inc\xmc_rtc.h ****  * Time values of RTC  <br>
 210:C:/Workspaces/DAVE-4.4.2-64Bit/fh-kaernten/DAVE_M2M_1/XMC4500_MTSR_Start_002/Libraries/XMCLib/inc\xmc_rtc.h ****  *
 211:C:/Workspaces/DAVE-4.4.2-64Bit/fh-kaernten/DAVE_M2M_1/XMC4500_MTSR_Start_002/Libraries/XMCLib/inc\xmc_rtc.h ****  * The structure presents a convenient way to set/obtain the 
 212:C:/Workspaces/DAVE-4.4.2-64Bit/fh-kaernten/DAVE_M2M_1/XMC4500_MTSR_Start_002/Libraries/XMCLib/inc\xmc_rtc.h ****  * time values for seconds, minutes, hours, days, month and year of RTC. 
 213:C:/Workspaces/DAVE-4.4.2-64Bit/fh-kaernten/DAVE_M2M_1/XMC4500_MTSR_Start_002/Libraries/XMCLib/inc\xmc_rtc.h ****  * The XMC_RTC_SetTime() and XMC_RTC_GetTime() can be
 214:C:/Workspaces/DAVE-4.4.2-64Bit/fh-kaernten/DAVE_M2M_1/XMC4500_MTSR_Start_002/Libraries/XMCLib/inc\xmc_rtc.h ****  * used to populate the structure with the time value of
 215:C:/Workspaces/DAVE-4.4.2-64Bit/fh-kaernten/DAVE_M2M_1/XMC4500_MTSR_Start_002/Libraries/XMCLib/inc\xmc_rtc.h ****  * RTC 
 216:C:/Workspaces/DAVE-4.4.2-64Bit/fh-kaernten/DAVE_M2M_1/XMC4500_MTSR_Start_002/Libraries/XMCLib/inc\xmc_rtc.h ****  */ 
 217:C:/Workspaces/DAVE-4.4.2-64Bit/fh-kaernten/DAVE_M2M_1/XMC4500_MTSR_Start_002/Libraries/XMCLib/inc\xmc_rtc.h **** typedef struct XMC_RTC_TIME
 218:C:/Workspaces/DAVE-4.4.2-64Bit/fh-kaernten/DAVE_M2M_1/XMC4500_MTSR_Start_002/Libraries/XMCLib/inc\xmc_rtc.h **** {
 219:C:/Workspaces/DAVE-4.4.2-64Bit/fh-kaernten/DAVE_M2M_1/XMC4500_MTSR_Start_002/Libraries/XMCLib/inc\xmc_rtc.h ****   union
 220:C:/Workspaces/DAVE-4.4.2-64Bit/fh-kaernten/DAVE_M2M_1/XMC4500_MTSR_Start_002/Libraries/XMCLib/inc\xmc_rtc.h ****   {
 221:C:/Workspaces/DAVE-4.4.2-64Bit/fh-kaernten/DAVE_M2M_1/XMC4500_MTSR_Start_002/Libraries/XMCLib/inc\xmc_rtc.h ****     uint32_t raw0;
 222:C:/Workspaces/DAVE-4.4.2-64Bit/fh-kaernten/DAVE_M2M_1/XMC4500_MTSR_Start_002/Libraries/XMCLib/inc\xmc_rtc.h **** 	  struct
 223:C:/Workspaces/DAVE-4.4.2-64Bit/fh-kaernten/DAVE_M2M_1/XMC4500_MTSR_Start_002/Libraries/XMCLib/inc\xmc_rtc.h **** 	  {
 224:C:/Workspaces/DAVE-4.4.2-64Bit/fh-kaernten/DAVE_M2M_1/XMC4500_MTSR_Start_002/Libraries/XMCLib/inc\xmc_rtc.h **** 	    uint32_t seconds  : 6; /**< Seconds time value (0-59: Above this causes this bitfield to be se
 225:C:/Workspaces/DAVE-4.4.2-64Bit/fh-kaernten/DAVE_M2M_1/XMC4500_MTSR_Start_002/Libraries/XMCLib/inc\xmc_rtc.h **** 	    uint32_t          : 2; 
 226:C:/Workspaces/DAVE-4.4.2-64Bit/fh-kaernten/DAVE_M2M_1/XMC4500_MTSR_Start_002/Libraries/XMCLib/inc\xmc_rtc.h **** 	    uint32_t minutes  : 6; /**< Minutes time value (0-59: Above this causes this bitfield to be se
 227:C:/Workspaces/DAVE-4.4.2-64Bit/fh-kaernten/DAVE_M2M_1/XMC4500_MTSR_Start_002/Libraries/XMCLib/inc\xmc_rtc.h **** 	    uint32_t          : 2;
 228:C:/Workspaces/DAVE-4.4.2-64Bit/fh-kaernten/DAVE_M2M_1/XMC4500_MTSR_Start_002/Libraries/XMCLib/inc\xmc_rtc.h **** 	    uint32_t hours    : 5; /**< Hours time value   (0-23: Above this causes this bitfield to be se
 229:C:/Workspaces/DAVE-4.4.2-64Bit/fh-kaernten/DAVE_M2M_1/XMC4500_MTSR_Start_002/Libraries/XMCLib/inc\xmc_rtc.h **** 	    uint32_t          : 3;
 230:C:/Workspaces/DAVE-4.4.2-64Bit/fh-kaernten/DAVE_M2M_1/XMC4500_MTSR_Start_002/Libraries/XMCLib/inc\xmc_rtc.h **** 	    uint32_t days     : 5; /**< Days time value (0-Actual days of month: Above this causes this bi
 231:C:/Workspaces/DAVE-4.4.2-64Bit/fh-kaernten/DAVE_M2M_1/XMC4500_MTSR_Start_002/Libraries/XMCLib/inc\xmc_rtc.h **** 	    uint32_t          : 3;
 232:C:/Workspaces/DAVE-4.4.2-64Bit/fh-kaernten/DAVE_M2M_1/XMC4500_MTSR_Start_002/Libraries/XMCLib/inc\xmc_rtc.h **** 	  };
 233:C:/Workspaces/DAVE-4.4.2-64Bit/fh-kaernten/DAVE_M2M_1/XMC4500_MTSR_Start_002/Libraries/XMCLib/inc\xmc_rtc.h ****   };
 234:C:/Workspaces/DAVE-4.4.2-64Bit/fh-kaernten/DAVE_M2M_1/XMC4500_MTSR_Start_002/Libraries/XMCLib/inc\xmc_rtc.h **** 
 235:C:/Workspaces/DAVE-4.4.2-64Bit/fh-kaernten/DAVE_M2M_1/XMC4500_MTSR_Start_002/Libraries/XMCLib/inc\xmc_rtc.h ****   union
 236:C:/Workspaces/DAVE-4.4.2-64Bit/fh-kaernten/DAVE_M2M_1/XMC4500_MTSR_Start_002/Libraries/XMCLib/inc\xmc_rtc.h ****   {
 237:C:/Workspaces/DAVE-4.4.2-64Bit/fh-kaernten/DAVE_M2M_1/XMC4500_MTSR_Start_002/Libraries/XMCLib/inc\xmc_rtc.h ****     uint32_t raw1;
 238:C:/Workspaces/DAVE-4.4.2-64Bit/fh-kaernten/DAVE_M2M_1/XMC4500_MTSR_Start_002/Libraries/XMCLib/inc\xmc_rtc.h **** 	  struct
 239:C:/Workspaces/DAVE-4.4.2-64Bit/fh-kaernten/DAVE_M2M_1/XMC4500_MTSR_Start_002/Libraries/XMCLib/inc\xmc_rtc.h **** 	  {
 240:C:/Workspaces/DAVE-4.4.2-64Bit/fh-kaernten/DAVE_M2M_1/XMC4500_MTSR_Start_002/Libraries/XMCLib/inc\xmc_rtc.h **** 	    uint32_t daysofweek  : 3; /**< Days of week time value (0-6: Above this causes this bitfield t
 241:C:/Workspaces/DAVE-4.4.2-64Bit/fh-kaernten/DAVE_M2M_1/XMC4500_MTSR_Start_002/Libraries/XMCLib/inc\xmc_rtc.h **** 	    uint32_t             : 5;
 242:C:/Workspaces/DAVE-4.4.2-64Bit/fh-kaernten/DAVE_M2M_1/XMC4500_MTSR_Start_002/Libraries/XMCLib/inc\xmc_rtc.h **** 	    uint32_t month       : 4; /**< Month time value       (0-11: Above this causes this bitfield t
 243:C:/Workspaces/DAVE-4.4.2-64Bit/fh-kaernten/DAVE_M2M_1/XMC4500_MTSR_Start_002/Libraries/XMCLib/inc\xmc_rtc.h **** 	    uint32_t             : 4;
 244:C:/Workspaces/DAVE-4.4.2-64Bit/fh-kaernten/DAVE_M2M_1/XMC4500_MTSR_Start_002/Libraries/XMCLib/inc\xmc_rtc.h **** 	    uint32_t year        : 16; /**< Year time value */
 245:C:/Workspaces/DAVE-4.4.2-64Bit/fh-kaernten/DAVE_M2M_1/XMC4500_MTSR_Start_002/Libraries/XMCLib/inc\xmc_rtc.h **** 	 };
 246:C:/Workspaces/DAVE-4.4.2-64Bit/fh-kaernten/DAVE_M2M_1/XMC4500_MTSR_Start_002/Libraries/XMCLib/inc\xmc_rtc.h ****   };
 247:C:/Workspaces/DAVE-4.4.2-64Bit/fh-kaernten/DAVE_M2M_1/XMC4500_MTSR_Start_002/Libraries/XMCLib/inc\xmc_rtc.h **** } XMC_RTC_TIME_t;
 248:C:/Workspaces/DAVE-4.4.2-64Bit/fh-kaernten/DAVE_M2M_1/XMC4500_MTSR_Start_002/Libraries/XMCLib/inc\xmc_rtc.h **** /*Anonymous structure/union guard end*/
 249:C:/Workspaces/DAVE-4.4.2-64Bit/fh-kaernten/DAVE_M2M_1/XMC4500_MTSR_Start_002/Libraries/XMCLib/inc\xmc_rtc.h **** #if defined(__CC_ARM)
 250:C:/Workspaces/DAVE-4.4.2-64Bit/fh-kaernten/DAVE_M2M_1/XMC4500_MTSR_Start_002/Libraries/XMCLib/inc\xmc_rtc.h ****   #pragma pop
 251:C:/Workspaces/DAVE-4.4.2-64Bit/fh-kaernten/DAVE_M2M_1/XMC4500_MTSR_Start_002/Libraries/XMCLib/inc\xmc_rtc.h **** #elif defined(__TASKING__)
 252:C:/Workspaces/DAVE-4.4.2-64Bit/fh-kaernten/DAVE_M2M_1/XMC4500_MTSR_Start_002/Libraries/XMCLib/inc\xmc_rtc.h ****   #pragma warning restore
 253:C:/Workspaces/DAVE-4.4.2-64Bit/fh-kaernten/DAVE_M2M_1/XMC4500_MTSR_Start_002/Libraries/XMCLib/inc\xmc_rtc.h **** #endif
 254:C:/Workspaces/DAVE-4.4.2-64Bit/fh-kaernten/DAVE_M2M_1/XMC4500_MTSR_Start_002/Libraries/XMCLib/inc\xmc_rtc.h **** 
 255:C:/Workspaces/DAVE-4.4.2-64Bit/fh-kaernten/DAVE_M2M_1/XMC4500_MTSR_Start_002/Libraries/XMCLib/inc\xmc_rtc.h **** /**
 256:C:/Workspaces/DAVE-4.4.2-64Bit/fh-kaernten/DAVE_M2M_1/XMC4500_MTSR_Start_002/Libraries/XMCLib/inc\xmc_rtc.h ****  * RTC initialization with time, alarm and clock divider(prescaler) configurations <br>
 257:C:/Workspaces/DAVE-4.4.2-64Bit/fh-kaernten/DAVE_M2M_1/XMC4500_MTSR_Start_002/Libraries/XMCLib/inc\xmc_rtc.h ****  *
 258:C:/Workspaces/DAVE-4.4.2-64Bit/fh-kaernten/DAVE_M2M_1/XMC4500_MTSR_Start_002/Libraries/XMCLib/inc\xmc_rtc.h ****  * The structure presents a convenient way to set/obtain the time and alarm configurations  
 259:C:/Workspaces/DAVE-4.4.2-64Bit/fh-kaernten/DAVE_M2M_1/XMC4500_MTSR_Start_002/Libraries/XMCLib/inc\xmc_rtc.h ****  * for RTC. The XMC_RTC_Init() can be used to populate the structure with the time and alarm
 260:C:/Workspaces/DAVE-4.4.2-64Bit/fh-kaernten/DAVE_M2M_1/XMC4500_MTSR_Start_002/Libraries/XMCLib/inc\xmc_rtc.h ****  * values of RTC.
 261:C:/Workspaces/DAVE-4.4.2-64Bit/fh-kaernten/DAVE_M2M_1/XMC4500_MTSR_Start_002/Libraries/XMCLib/inc\xmc_rtc.h ****  */  
 262:C:/Workspaces/DAVE-4.4.2-64Bit/fh-kaernten/DAVE_M2M_1/XMC4500_MTSR_Start_002/Libraries/XMCLib/inc\xmc_rtc.h **** typedef struct XMC_RTC_CONFIG
 263:C:/Workspaces/DAVE-4.4.2-64Bit/fh-kaernten/DAVE_M2M_1/XMC4500_MTSR_Start_002/Libraries/XMCLib/inc\xmc_rtc.h **** {
 264:C:/Workspaces/DAVE-4.4.2-64Bit/fh-kaernten/DAVE_M2M_1/XMC4500_MTSR_Start_002/Libraries/XMCLib/inc\xmc_rtc.h ****   XMC_RTC_TIME_t    time;
 265:C:/Workspaces/DAVE-4.4.2-64Bit/fh-kaernten/DAVE_M2M_1/XMC4500_MTSR_Start_002/Libraries/XMCLib/inc\xmc_rtc.h ****   XMC_RTC_ALARM_t   alarm;
 266:C:/Workspaces/DAVE-4.4.2-64Bit/fh-kaernten/DAVE_M2M_1/XMC4500_MTSR_Start_002/Libraries/XMCLib/inc\xmc_rtc.h ****   uint16_t          prescaler;
 267:C:/Workspaces/DAVE-4.4.2-64Bit/fh-kaernten/DAVE_M2M_1/XMC4500_MTSR_Start_002/Libraries/XMCLib/inc\xmc_rtc.h **** } XMC_RTC_CONFIG_t;
 268:C:/Workspaces/DAVE-4.4.2-64Bit/fh-kaernten/DAVE_M2M_1/XMC4500_MTSR_Start_002/Libraries/XMCLib/inc\xmc_rtc.h **** 
 269:C:/Workspaces/DAVE-4.4.2-64Bit/fh-kaernten/DAVE_M2M_1/XMC4500_MTSR_Start_002/Libraries/XMCLib/inc\xmc_rtc.h **** /**************************************************************************************************
 270:C:/Workspaces/DAVE-4.4.2-64Bit/fh-kaernten/DAVE_M2M_1/XMC4500_MTSR_Start_002/Libraries/XMCLib/inc\xmc_rtc.h ****  * API PROTOTYPES
 271:C:/Workspaces/DAVE-4.4.2-64Bit/fh-kaernten/DAVE_M2M_1/XMC4500_MTSR_Start_002/Libraries/XMCLib/inc\xmc_rtc.h ****  **************************************************************************************************
 272:C:/Workspaces/DAVE-4.4.2-64Bit/fh-kaernten/DAVE_M2M_1/XMC4500_MTSR_Start_002/Libraries/XMCLib/inc\xmc_rtc.h **** 
 273:C:/Workspaces/DAVE-4.4.2-64Bit/fh-kaernten/DAVE_M2M_1/XMC4500_MTSR_Start_002/Libraries/XMCLib/inc\xmc_rtc.h **** #ifdef __cplusplus
 274:C:/Workspaces/DAVE-4.4.2-64Bit/fh-kaernten/DAVE_M2M_1/XMC4500_MTSR_Start_002/Libraries/XMCLib/inc\xmc_rtc.h **** extern "C" {
 275:C:/Workspaces/DAVE-4.4.2-64Bit/fh-kaernten/DAVE_M2M_1/XMC4500_MTSR_Start_002/Libraries/XMCLib/inc\xmc_rtc.h **** #endif
 276:C:/Workspaces/DAVE-4.4.2-64Bit/fh-kaernten/DAVE_M2M_1/XMC4500_MTSR_Start_002/Libraries/XMCLib/inc\xmc_rtc.h **** 
 277:C:/Workspaces/DAVE-4.4.2-64Bit/fh-kaernten/DAVE_M2M_1/XMC4500_MTSR_Start_002/Libraries/XMCLib/inc\xmc_rtc.h **** /**
 278:C:/Workspaces/DAVE-4.4.2-64Bit/fh-kaernten/DAVE_M2M_1/XMC4500_MTSR_Start_002/Libraries/XMCLib/inc\xmc_rtc.h ****  * @param config Constant pointer to a constant ::XMC_RTC_CONFIG_t structure containing the
 279:C:/Workspaces/DAVE-4.4.2-64Bit/fh-kaernten/DAVE_M2M_1/XMC4500_MTSR_Start_002/Libraries/XMCLib/inc\xmc_rtc.h ****  *               time, alarm time and clock divider(prescaler) configuration. 
 280:C:/Workspaces/DAVE-4.4.2-64Bit/fh-kaernten/DAVE_M2M_1/XMC4500_MTSR_Start_002/Libraries/XMCLib/inc\xmc_rtc.h ****  * @return XMC_RTC_STATUS_t Always returns XMC_RTC_STATUS_OK (It contains only register assignment 
 281:C:/Workspaces/DAVE-4.4.2-64Bit/fh-kaernten/DAVE_M2M_1/XMC4500_MTSR_Start_002/Libraries/XMCLib/inc\xmc_rtc.h ****  *
 282:C:/Workspaces/DAVE-4.4.2-64Bit/fh-kaernten/DAVE_M2M_1/XMC4500_MTSR_Start_002/Libraries/XMCLib/inc\xmc_rtc.h ****  * \par<b>Description: </b><br>
 283:C:/Workspaces/DAVE-4.4.2-64Bit/fh-kaernten/DAVE_M2M_1/XMC4500_MTSR_Start_002/Libraries/XMCLib/inc\xmc_rtc.h ****  * Initialize the RTC peripheral <br>
 284:C:/Workspaces/DAVE-4.4.2-64Bit/fh-kaernten/DAVE_M2M_1/XMC4500_MTSR_Start_002/Libraries/XMCLib/inc\xmc_rtc.h ****  *
 285:C:/Workspaces/DAVE-4.4.2-64Bit/fh-kaernten/DAVE_M2M_1/XMC4500_MTSR_Start_002/Libraries/XMCLib/inc\xmc_rtc.h ****  * \par \if XMC4
 286:C:/Workspaces/DAVE-4.4.2-64Bit/fh-kaernten/DAVE_M2M_1/XMC4500_MTSR_Start_002/Libraries/XMCLib/inc\xmc_rtc.h ****  * The function enables the hibernate domain for accessing RTC peripheral registers, configures 
 287:C:/Workspaces/DAVE-4.4.2-64Bit/fh-kaernten/DAVE_M2M_1/XMC4500_MTSR_Start_002/Libraries/XMCLib/inc\xmc_rtc.h ****  * internal clock divider, time and alarm values by writing to the CTR.DIV, TIM0, TIM1, ATIM0 and
 288:C:/Workspaces/DAVE-4.4.2-64Bit/fh-kaernten/DAVE_M2M_1/XMC4500_MTSR_Start_002/Libraries/XMCLib/inc\xmc_rtc.h ****  * ATIM1 registers.
 289:C:/Workspaces/DAVE-4.4.2-64Bit/fh-kaernten/DAVE_M2M_1/XMC4500_MTSR_Start_002/Libraries/XMCLib/inc\xmc_rtc.h ****  * \endif
 290:C:/Workspaces/DAVE-4.4.2-64Bit/fh-kaernten/DAVE_M2M_1/XMC4500_MTSR_Start_002/Libraries/XMCLib/inc\xmc_rtc.h ****  *
 291:C:/Workspaces/DAVE-4.4.2-64Bit/fh-kaernten/DAVE_M2M_1/XMC4500_MTSR_Start_002/Libraries/XMCLib/inc\xmc_rtc.h ****  * \if XMC1
 292:C:/Workspaces/DAVE-4.4.2-64Bit/fh-kaernten/DAVE_M2M_1/XMC4500_MTSR_Start_002/Libraries/XMCLib/inc\xmc_rtc.h ****  * The function ungates the peripheral clock for RTC, configures 
 293:C:/Workspaces/DAVE-4.4.2-64Bit/fh-kaernten/DAVE_M2M_1/XMC4500_MTSR_Start_002/Libraries/XMCLib/inc\xmc_rtc.h ****  * internal clock divider, time and alarm values by writing to the CTR.DIV, TIM0, TIM1, ATIM0 and
 294:C:/Workspaces/DAVE-4.4.2-64Bit/fh-kaernten/DAVE_M2M_1/XMC4500_MTSR_Start_002/Libraries/XMCLib/inc\xmc_rtc.h ****  * ATIM1 registers.
 295:C:/Workspaces/DAVE-4.4.2-64Bit/fh-kaernten/DAVE_M2M_1/XMC4500_MTSR_Start_002/Libraries/XMCLib/inc\xmc_rtc.h ****  * \endif
 296:C:/Workspaces/DAVE-4.4.2-64Bit/fh-kaernten/DAVE_M2M_1/XMC4500_MTSR_Start_002/Libraries/XMCLib/inc\xmc_rtc.h ****  */
 297:C:/Workspaces/DAVE-4.4.2-64Bit/fh-kaernten/DAVE_M2M_1/XMC4500_MTSR_Start_002/Libraries/XMCLib/inc\xmc_rtc.h **** XMC_RTC_STATUS_t XMC_RTC_Init(const XMC_RTC_CONFIG_t *const config);
 298:C:/Workspaces/DAVE-4.4.2-64Bit/fh-kaernten/DAVE_M2M_1/XMC4500_MTSR_Start_002/Libraries/XMCLib/inc\xmc_rtc.h **** 
 299:C:/Workspaces/DAVE-4.4.2-64Bit/fh-kaernten/DAVE_M2M_1/XMC4500_MTSR_Start_002/Libraries/XMCLib/inc\xmc_rtc.h **** /** 
 300:C:/Workspaces/DAVE-4.4.2-64Bit/fh-kaernten/DAVE_M2M_1/XMC4500_MTSR_Start_002/Libraries/XMCLib/inc\xmc_rtc.h ****  * @return None
 301:C:/Workspaces/DAVE-4.4.2-64Bit/fh-kaernten/DAVE_M2M_1/XMC4500_MTSR_Start_002/Libraries/XMCLib/inc\xmc_rtc.h ****  *
 302:C:/Workspaces/DAVE-4.4.2-64Bit/fh-kaernten/DAVE_M2M_1/XMC4500_MTSR_Start_002/Libraries/XMCLib/inc\xmc_rtc.h ****  * \par<b>Description</b><br>
 303:C:/Workspaces/DAVE-4.4.2-64Bit/fh-kaernten/DAVE_M2M_1/XMC4500_MTSR_Start_002/Libraries/XMCLib/inc\xmc_rtc.h ****  * Enables RTC peripheral for programming its registers <br>
 304:C:/Workspaces/DAVE-4.4.2-64Bit/fh-kaernten/DAVE_M2M_1/XMC4500_MTSR_Start_002/Libraries/XMCLib/inc\xmc_rtc.h ****  *
 305:C:/Workspaces/DAVE-4.4.2-64Bit/fh-kaernten/DAVE_M2M_1/XMC4500_MTSR_Start_002/Libraries/XMCLib/inc\xmc_rtc.h ****  * \par \if XMC4
 306:C:/Workspaces/DAVE-4.4.2-64Bit/fh-kaernten/DAVE_M2M_1/XMC4500_MTSR_Start_002/Libraries/XMCLib/inc\xmc_rtc.h ****  * Enables the hibernate domain for accessing RTC peripheral registers.
 307:C:/Workspaces/DAVE-4.4.2-64Bit/fh-kaernten/DAVE_M2M_1/XMC4500_MTSR_Start_002/Libraries/XMCLib/inc\xmc_rtc.h ****  * \endif
 308:C:/Workspaces/DAVE-4.4.2-64Bit/fh-kaernten/DAVE_M2M_1/XMC4500_MTSR_Start_002/Libraries/XMCLib/inc\xmc_rtc.h ****  *
 309:C:/Workspaces/DAVE-4.4.2-64Bit/fh-kaernten/DAVE_M2M_1/XMC4500_MTSR_Start_002/Libraries/XMCLib/inc\xmc_rtc.h ****  * \if XMC1
 310:C:/Workspaces/DAVE-4.4.2-64Bit/fh-kaernten/DAVE_M2M_1/XMC4500_MTSR_Start_002/Libraries/XMCLib/inc\xmc_rtc.h ****  * Ungates the peripheral clock.
 311:C:/Workspaces/DAVE-4.4.2-64Bit/fh-kaernten/DAVE_M2M_1/XMC4500_MTSR_Start_002/Libraries/XMCLib/inc\xmc_rtc.h ****  * \endif
 312:C:/Workspaces/DAVE-4.4.2-64Bit/fh-kaernten/DAVE_M2M_1/XMC4500_MTSR_Start_002/Libraries/XMCLib/inc\xmc_rtc.h ****  *
 313:C:/Workspaces/DAVE-4.4.2-64Bit/fh-kaernten/DAVE_M2M_1/XMC4500_MTSR_Start_002/Libraries/XMCLib/inc\xmc_rtc.h ****  * \par<b>Related APIs:</b><br>
 314:C:/Workspaces/DAVE-4.4.2-64Bit/fh-kaernten/DAVE_M2M_1/XMC4500_MTSR_Start_002/Libraries/XMCLib/inc\xmc_rtc.h ****  * XMC_RTC_Disable(), XMC_SCU_RESET_DeassertPeripheralReset()
 315:C:/Workspaces/DAVE-4.4.2-64Bit/fh-kaernten/DAVE_M2M_1/XMC4500_MTSR_Start_002/Libraries/XMCLib/inc\xmc_rtc.h ****  */ 
 316:C:/Workspaces/DAVE-4.4.2-64Bit/fh-kaernten/DAVE_M2M_1/XMC4500_MTSR_Start_002/Libraries/XMCLib/inc\xmc_rtc.h **** void XMC_RTC_Enable(void);
 317:C:/Workspaces/DAVE-4.4.2-64Bit/fh-kaernten/DAVE_M2M_1/XMC4500_MTSR_Start_002/Libraries/XMCLib/inc\xmc_rtc.h **** 
 318:C:/Workspaces/DAVE-4.4.2-64Bit/fh-kaernten/DAVE_M2M_1/XMC4500_MTSR_Start_002/Libraries/XMCLib/inc\xmc_rtc.h **** /** 
 319:C:/Workspaces/DAVE-4.4.2-64Bit/fh-kaernten/DAVE_M2M_1/XMC4500_MTSR_Start_002/Libraries/XMCLib/inc\xmc_rtc.h ****  * @return None
 320:C:/Workspaces/DAVE-4.4.2-64Bit/fh-kaernten/DAVE_M2M_1/XMC4500_MTSR_Start_002/Libraries/XMCLib/inc\xmc_rtc.h ****  *
 321:C:/Workspaces/DAVE-4.4.2-64Bit/fh-kaernten/DAVE_M2M_1/XMC4500_MTSR_Start_002/Libraries/XMCLib/inc\xmc_rtc.h ****  * \par<b>Description</b><br>
 322:C:/Workspaces/DAVE-4.4.2-64Bit/fh-kaernten/DAVE_M2M_1/XMC4500_MTSR_Start_002/Libraries/XMCLib/inc\xmc_rtc.h ****  * Disables RTC peripheral for programming its registers <br>
 323:C:/Workspaces/DAVE-4.4.2-64Bit/fh-kaernten/DAVE_M2M_1/XMC4500_MTSR_Start_002/Libraries/XMCLib/inc\xmc_rtc.h ****  *
 324:C:/Workspaces/DAVE-4.4.2-64Bit/fh-kaernten/DAVE_M2M_1/XMC4500_MTSR_Start_002/Libraries/XMCLib/inc\xmc_rtc.h ****  * \par \if XMC4
 325:C:/Workspaces/DAVE-4.4.2-64Bit/fh-kaernten/DAVE_M2M_1/XMC4500_MTSR_Start_002/Libraries/XMCLib/inc\xmc_rtc.h ****  * Empty function (Hibernate domain is not disabled).
 326:C:/Workspaces/DAVE-4.4.2-64Bit/fh-kaernten/DAVE_M2M_1/XMC4500_MTSR_Start_002/Libraries/XMCLib/inc\xmc_rtc.h ****  * \endif
 327:C:/Workspaces/DAVE-4.4.2-64Bit/fh-kaernten/DAVE_M2M_1/XMC4500_MTSR_Start_002/Libraries/XMCLib/inc\xmc_rtc.h ****  *
 328:C:/Workspaces/DAVE-4.4.2-64Bit/fh-kaernten/DAVE_M2M_1/XMC4500_MTSR_Start_002/Libraries/XMCLib/inc\xmc_rtc.h ****  * \if XMC1
 329:C:/Workspaces/DAVE-4.4.2-64Bit/fh-kaernten/DAVE_M2M_1/XMC4500_MTSR_Start_002/Libraries/XMCLib/inc\xmc_rtc.h ****  * Gates the peripheral clock.
 330:C:/Workspaces/DAVE-4.4.2-64Bit/fh-kaernten/DAVE_M2M_1/XMC4500_MTSR_Start_002/Libraries/XMCLib/inc\xmc_rtc.h ****  * \endif
 331:C:/Workspaces/DAVE-4.4.2-64Bit/fh-kaernten/DAVE_M2M_1/XMC4500_MTSR_Start_002/Libraries/XMCLib/inc\xmc_rtc.h ****  *
 332:C:/Workspaces/DAVE-4.4.2-64Bit/fh-kaernten/DAVE_M2M_1/XMC4500_MTSR_Start_002/Libraries/XMCLib/inc\xmc_rtc.h ****  * \par<b>Related APIs:</b><br>
 333:C:/Workspaces/DAVE-4.4.2-64Bit/fh-kaernten/DAVE_M2M_1/XMC4500_MTSR_Start_002/Libraries/XMCLib/inc\xmc_rtc.h ****  * XMC_RTC_Enable(), XMC_SCU_RESET_AssertPeripheralReset()
 334:C:/Workspaces/DAVE-4.4.2-64Bit/fh-kaernten/DAVE_M2M_1/XMC4500_MTSR_Start_002/Libraries/XMCLib/inc\xmc_rtc.h ****  */ 
 335:C:/Workspaces/DAVE-4.4.2-64Bit/fh-kaernten/DAVE_M2M_1/XMC4500_MTSR_Start_002/Libraries/XMCLib/inc\xmc_rtc.h **** void XMC_RTC_Disable(void);
 336:C:/Workspaces/DAVE-4.4.2-64Bit/fh-kaernten/DAVE_M2M_1/XMC4500_MTSR_Start_002/Libraries/XMCLib/inc\xmc_rtc.h **** 
 337:C:/Workspaces/DAVE-4.4.2-64Bit/fh-kaernten/DAVE_M2M_1/XMC4500_MTSR_Start_002/Libraries/XMCLib/inc\xmc_rtc.h **** /** 
 338:C:/Workspaces/DAVE-4.4.2-64Bit/fh-kaernten/DAVE_M2M_1/XMC4500_MTSR_Start_002/Libraries/XMCLib/inc\xmc_rtc.h ****  * @return None
 339:C:/Workspaces/DAVE-4.4.2-64Bit/fh-kaernten/DAVE_M2M_1/XMC4500_MTSR_Start_002/Libraries/XMCLib/inc\xmc_rtc.h ****  *
 340:C:/Workspaces/DAVE-4.4.2-64Bit/fh-kaernten/DAVE_M2M_1/XMC4500_MTSR_Start_002/Libraries/XMCLib/inc\xmc_rtc.h ****  * \par<b>Description</b><br>
 341:C:/Workspaces/DAVE-4.4.2-64Bit/fh-kaernten/DAVE_M2M_1/XMC4500_MTSR_Start_002/Libraries/XMCLib/inc\xmc_rtc.h ****  * Checks RTC peripheral is enabled for programming its registers <br>
 342:C:/Workspaces/DAVE-4.4.2-64Bit/fh-kaernten/DAVE_M2M_1/XMC4500_MTSR_Start_002/Libraries/XMCLib/inc\xmc_rtc.h ****  *
 343:C:/Workspaces/DAVE-4.4.2-64Bit/fh-kaernten/DAVE_M2M_1/XMC4500_MTSR_Start_002/Libraries/XMCLib/inc\xmc_rtc.h ****  * \par \if XMC4
 344:C:/Workspaces/DAVE-4.4.2-64Bit/fh-kaernten/DAVE_M2M_1/XMC4500_MTSR_Start_002/Libraries/XMCLib/inc\xmc_rtc.h ****  * Checks the hibernate domain is enabled or not.
 345:C:/Workspaces/DAVE-4.4.2-64Bit/fh-kaernten/DAVE_M2M_1/XMC4500_MTSR_Start_002/Libraries/XMCLib/inc\xmc_rtc.h ****  * \endif
 346:C:/Workspaces/DAVE-4.4.2-64Bit/fh-kaernten/DAVE_M2M_1/XMC4500_MTSR_Start_002/Libraries/XMCLib/inc\xmc_rtc.h ****  *
 347:C:/Workspaces/DAVE-4.4.2-64Bit/fh-kaernten/DAVE_M2M_1/XMC4500_MTSR_Start_002/Libraries/XMCLib/inc\xmc_rtc.h ****  * \if XMC1
 348:C:/Workspaces/DAVE-4.4.2-64Bit/fh-kaernten/DAVE_M2M_1/XMC4500_MTSR_Start_002/Libraries/XMCLib/inc\xmc_rtc.h ****  * Checks peripheral clock is ungated or not.
 349:C:/Workspaces/DAVE-4.4.2-64Bit/fh-kaernten/DAVE_M2M_1/XMC4500_MTSR_Start_002/Libraries/XMCLib/inc\xmc_rtc.h ****  * \endif
 350:C:/Workspaces/DAVE-4.4.2-64Bit/fh-kaernten/DAVE_M2M_1/XMC4500_MTSR_Start_002/Libraries/XMCLib/inc\xmc_rtc.h ****  *
 351:C:/Workspaces/DAVE-4.4.2-64Bit/fh-kaernten/DAVE_M2M_1/XMC4500_MTSR_Start_002/Libraries/XMCLib/inc\xmc_rtc.h ****  * \par<b>Related APIs:</b><br>
 352:C:/Workspaces/DAVE-4.4.2-64Bit/fh-kaernten/DAVE_M2M_1/XMC4500_MTSR_Start_002/Libraries/XMCLib/inc\xmc_rtc.h ****  * XMC_RTC_Enable(), XMC_RTC_Disable(), XMC_SCU_RESET_DeassertPeripheralReset(),
 353:C:/Workspaces/DAVE-4.4.2-64Bit/fh-kaernten/DAVE_M2M_1/XMC4500_MTSR_Start_002/Libraries/XMCLib/inc\xmc_rtc.h ****  * XMC_SCU_RESET_AssertPeripheralReset()
 354:C:/Workspaces/DAVE-4.4.2-64Bit/fh-kaernten/DAVE_M2M_1/XMC4500_MTSR_Start_002/Libraries/XMCLib/inc\xmc_rtc.h ****  */ 
 355:C:/Workspaces/DAVE-4.4.2-64Bit/fh-kaernten/DAVE_M2M_1/XMC4500_MTSR_Start_002/Libraries/XMCLib/inc\xmc_rtc.h **** bool XMC_RTC_IsEnabled(void);
 356:C:/Workspaces/DAVE-4.4.2-64Bit/fh-kaernten/DAVE_M2M_1/XMC4500_MTSR_Start_002/Libraries/XMCLib/inc\xmc_rtc.h ****  
 357:C:/Workspaces/DAVE-4.4.2-64Bit/fh-kaernten/DAVE_M2M_1/XMC4500_MTSR_Start_002/Libraries/XMCLib/inc\xmc_rtc.h **** /**
 358:C:/Workspaces/DAVE-4.4.2-64Bit/fh-kaernten/DAVE_M2M_1/XMC4500_MTSR_Start_002/Libraries/XMCLib/inc\xmc_rtc.h ****  * @return None
 359:C:/Workspaces/DAVE-4.4.2-64Bit/fh-kaernten/DAVE_M2M_1/XMC4500_MTSR_Start_002/Libraries/XMCLib/inc\xmc_rtc.h ****  *
 360:C:/Workspaces/DAVE-4.4.2-64Bit/fh-kaernten/DAVE_M2M_1/XMC4500_MTSR_Start_002/Libraries/XMCLib/inc\xmc_rtc.h ****  * \par<b>Description</b><br>
 361:C:/Workspaces/DAVE-4.4.2-64Bit/fh-kaernten/DAVE_M2M_1/XMC4500_MTSR_Start_002/Libraries/XMCLib/inc\xmc_rtc.h ****  * Enables RTC peripheral to start counting time <br>
 362:C:/Workspaces/DAVE-4.4.2-64Bit/fh-kaernten/DAVE_M2M_1/XMC4500_MTSR_Start_002/Libraries/XMCLib/inc\xmc_rtc.h ****  *
 363:C:/Workspaces/DAVE-4.4.2-64Bit/fh-kaernten/DAVE_M2M_1/XMC4500_MTSR_Start_002/Libraries/XMCLib/inc\xmc_rtc.h ****  * \par
 364:C:/Workspaces/DAVE-4.4.2-64Bit/fh-kaernten/DAVE_M2M_1/XMC4500_MTSR_Start_002/Libraries/XMCLib/inc\xmc_rtc.h ****  * The function starts the RTC for counting time by setting 
 365:C:/Workspaces/DAVE-4.4.2-64Bit/fh-kaernten/DAVE_M2M_1/XMC4500_MTSR_Start_002/Libraries/XMCLib/inc\xmc_rtc.h ****  * CTR.ENB bit. Before starting the RTC, it should not be in
 366:C:/Workspaces/DAVE-4.4.2-64Bit/fh-kaernten/DAVE_M2M_1/XMC4500_MTSR_Start_002/Libraries/XMCLib/inc\xmc_rtc.h ****  * running mode and also hibernate domain should be enabled.
 367:C:/Workspaces/DAVE-4.4.2-64Bit/fh-kaernten/DAVE_M2M_1/XMC4500_MTSR_Start_002/Libraries/XMCLib/inc\xmc_rtc.h ****  *
 368:C:/Workspaces/DAVE-4.4.2-64Bit/fh-kaernten/DAVE_M2M_1/XMC4500_MTSR_Start_002/Libraries/XMCLib/inc\xmc_rtc.h ****  * \par<b>Related APIs:</b><br>
 369:C:/Workspaces/DAVE-4.4.2-64Bit/fh-kaernten/DAVE_M2M_1/XMC4500_MTSR_Start_002/Libraries/XMCLib/inc\xmc_rtc.h ****  * XMC_RTC_Enable(), XMC_RTC_Stop(), XMC_SCU_RESET_DeassertPeripheralReset()
 370:C:/Workspaces/DAVE-4.4.2-64Bit/fh-kaernten/DAVE_M2M_1/XMC4500_MTSR_Start_002/Libraries/XMCLib/inc\xmc_rtc.h ****  */  
 371:C:/Workspaces/DAVE-4.4.2-64Bit/fh-kaernten/DAVE_M2M_1/XMC4500_MTSR_Start_002/Libraries/XMCLib/inc\xmc_rtc.h **** void XMC_RTC_Start(void);
 372:C:/Workspaces/DAVE-4.4.2-64Bit/fh-kaernten/DAVE_M2M_1/XMC4500_MTSR_Start_002/Libraries/XMCLib/inc\xmc_rtc.h **** 
 373:C:/Workspaces/DAVE-4.4.2-64Bit/fh-kaernten/DAVE_M2M_1/XMC4500_MTSR_Start_002/Libraries/XMCLib/inc\xmc_rtc.h **** /**
 374:C:/Workspaces/DAVE-4.4.2-64Bit/fh-kaernten/DAVE_M2M_1/XMC4500_MTSR_Start_002/Libraries/XMCLib/inc\xmc_rtc.h ****  * @return None
 375:C:/Workspaces/DAVE-4.4.2-64Bit/fh-kaernten/DAVE_M2M_1/XMC4500_MTSR_Start_002/Libraries/XMCLib/inc\xmc_rtc.h ****  *
 376:C:/Workspaces/DAVE-4.4.2-64Bit/fh-kaernten/DAVE_M2M_1/XMC4500_MTSR_Start_002/Libraries/XMCLib/inc\xmc_rtc.h ****  * \par<b>Description</b><br>
 377:C:/Workspaces/DAVE-4.4.2-64Bit/fh-kaernten/DAVE_M2M_1/XMC4500_MTSR_Start_002/Libraries/XMCLib/inc\xmc_rtc.h ****  * Disables RTC peripheral to start counting time <br>
 378:C:/Workspaces/DAVE-4.4.2-64Bit/fh-kaernten/DAVE_M2M_1/XMC4500_MTSR_Start_002/Libraries/XMCLib/inc\xmc_rtc.h ****  *
 379:C:/Workspaces/DAVE-4.4.2-64Bit/fh-kaernten/DAVE_M2M_1/XMC4500_MTSR_Start_002/Libraries/XMCLib/inc\xmc_rtc.h ****  * \par
 380:C:/Workspaces/DAVE-4.4.2-64Bit/fh-kaernten/DAVE_M2M_1/XMC4500_MTSR_Start_002/Libraries/XMCLib/inc\xmc_rtc.h ****  * The function stops the RTC for counting time by resetting 
 381:C:/Workspaces/DAVE-4.4.2-64Bit/fh-kaernten/DAVE_M2M_1/XMC4500_MTSR_Start_002/Libraries/XMCLib/inc\xmc_rtc.h ****  * CTR.ENB. Before stopping the RTC, hibernate domain should be enabled.
 382:C:/Workspaces/DAVE-4.4.2-64Bit/fh-kaernten/DAVE_M2M_1/XMC4500_MTSR_Start_002/Libraries/XMCLib/inc\xmc_rtc.h ****  *
 383:C:/Workspaces/DAVE-4.4.2-64Bit/fh-kaernten/DAVE_M2M_1/XMC4500_MTSR_Start_002/Libraries/XMCLib/inc\xmc_rtc.h ****  * \par<b>Related APIs:</b><br>
 384:C:/Workspaces/DAVE-4.4.2-64Bit/fh-kaernten/DAVE_M2M_1/XMC4500_MTSR_Start_002/Libraries/XMCLib/inc\xmc_rtc.h ****  * XMC_RTC_Enable(), XMC_RTC_Start(), XMC_SCU_RESET_AssertPeripheralReset()
 385:C:/Workspaces/DAVE-4.4.2-64Bit/fh-kaernten/DAVE_M2M_1/XMC4500_MTSR_Start_002/Libraries/XMCLib/inc\xmc_rtc.h ****  */  
 386:C:/Workspaces/DAVE-4.4.2-64Bit/fh-kaernten/DAVE_M2M_1/XMC4500_MTSR_Start_002/Libraries/XMCLib/inc\xmc_rtc.h **** void XMC_RTC_Stop(void);
 387:C:/Workspaces/DAVE-4.4.2-64Bit/fh-kaernten/DAVE_M2M_1/XMC4500_MTSR_Start_002/Libraries/XMCLib/inc\xmc_rtc.h ****   
 388:C:/Workspaces/DAVE-4.4.2-64Bit/fh-kaernten/DAVE_M2M_1/XMC4500_MTSR_Start_002/Libraries/XMCLib/inc\xmc_rtc.h **** /**
 389:C:/Workspaces/DAVE-4.4.2-64Bit/fh-kaernten/DAVE_M2M_1/XMC4500_MTSR_Start_002/Libraries/XMCLib/inc\xmc_rtc.h ****  * @param prescaler Prescaler value to be set                 
 390:C:/Workspaces/DAVE-4.4.2-64Bit/fh-kaernten/DAVE_M2M_1/XMC4500_MTSR_Start_002/Libraries/XMCLib/inc\xmc_rtc.h ****  * @return None
 391:C:/Workspaces/DAVE-4.4.2-64Bit/fh-kaernten/DAVE_M2M_1/XMC4500_MTSR_Start_002/Libraries/XMCLib/inc\xmc_rtc.h ****  *
 392:C:/Workspaces/DAVE-4.4.2-64Bit/fh-kaernten/DAVE_M2M_1/XMC4500_MTSR_Start_002/Libraries/XMCLib/inc\xmc_rtc.h ****  * \par<b>Description: </b><br>
 393:C:/Workspaces/DAVE-4.4.2-64Bit/fh-kaernten/DAVE_M2M_1/XMC4500_MTSR_Start_002/Libraries/XMCLib/inc\xmc_rtc.h ****  * Sets the RTC module prescaler value <br>
 394:C:/Workspaces/DAVE-4.4.2-64Bit/fh-kaernten/DAVE_M2M_1/XMC4500_MTSR_Start_002/Libraries/XMCLib/inc\xmc_rtc.h ****  *
 395:C:/Workspaces/DAVE-4.4.2-64Bit/fh-kaernten/DAVE_M2M_1/XMC4500_MTSR_Start_002/Libraries/XMCLib/inc\xmc_rtc.h ****  * \par
 396:C:/Workspaces/DAVE-4.4.2-64Bit/fh-kaernten/DAVE_M2M_1/XMC4500_MTSR_Start_002/Libraries/XMCLib/inc\xmc_rtc.h ****  * The function sets the CTR.DIV bitfield to configure the prescalar value. 
 397:C:/Workspaces/DAVE-4.4.2-64Bit/fh-kaernten/DAVE_M2M_1/XMC4500_MTSR_Start_002/Libraries/XMCLib/inc\xmc_rtc.h ****  * The default value for the prescalar with the 32.768kHz crystal (or the internal clock) 
 398:C:/Workspaces/DAVE-4.4.2-64Bit/fh-kaernten/DAVE_M2M_1/XMC4500_MTSR_Start_002/Libraries/XMCLib/inc\xmc_rtc.h ****  * is 7FFFH for a time interval of 1 sec. Before setting the prescaler value RTC should be
 399:C:/Workspaces/DAVE-4.4.2-64Bit/fh-kaernten/DAVE_M2M_1/XMC4500_MTSR_Start_002/Libraries/XMCLib/inc\xmc_rtc.h ****  * in stop mode and hibernate domain should be enabled.
 400:C:/Workspaces/DAVE-4.4.2-64Bit/fh-kaernten/DAVE_M2M_1/XMC4500_MTSR_Start_002/Libraries/XMCLib/inc\xmc_rtc.h ****  *
 401:C:/Workspaces/DAVE-4.4.2-64Bit/fh-kaernten/DAVE_M2M_1/XMC4500_MTSR_Start_002/Libraries/XMCLib/inc\xmc_rtc.h ****  * \par<b>Related APIs:</b><br>
 402:C:/Workspaces/DAVE-4.4.2-64Bit/fh-kaernten/DAVE_M2M_1/XMC4500_MTSR_Start_002/Libraries/XMCLib/inc\xmc_rtc.h ****  * XMC_RTC_Stop(), XMC_RTC_Enable(), XMC_RTC_GetPrescaler()
 403:C:/Workspaces/DAVE-4.4.2-64Bit/fh-kaernten/DAVE_M2M_1/XMC4500_MTSR_Start_002/Libraries/XMCLib/inc\xmc_rtc.h ****  */   
 404:C:/Workspaces/DAVE-4.4.2-64Bit/fh-kaernten/DAVE_M2M_1/XMC4500_MTSR_Start_002/Libraries/XMCLib/inc\xmc_rtc.h **** void XMC_RTC_SetPrescaler(uint16_t prescaler);
 405:C:/Workspaces/DAVE-4.4.2-64Bit/fh-kaernten/DAVE_M2M_1/XMC4500_MTSR_Start_002/Libraries/XMCLib/inc\xmc_rtc.h **** 
 406:C:/Workspaces/DAVE-4.4.2-64Bit/fh-kaernten/DAVE_M2M_1/XMC4500_MTSR_Start_002/Libraries/XMCLib/inc\xmc_rtc.h **** /**
 407:C:/Workspaces/DAVE-4.4.2-64Bit/fh-kaernten/DAVE_M2M_1/XMC4500_MTSR_Start_002/Libraries/XMCLib/inc\xmc_rtc.h ****  * @return None
 408:C:/Workspaces/DAVE-4.4.2-64Bit/fh-kaernten/DAVE_M2M_1/XMC4500_MTSR_Start_002/Libraries/XMCLib/inc\xmc_rtc.h ****  *
 409:C:/Workspaces/DAVE-4.4.2-64Bit/fh-kaernten/DAVE_M2M_1/XMC4500_MTSR_Start_002/Libraries/XMCLib/inc\xmc_rtc.h ****  * \par<b>Description: </b><br>
 410:C:/Workspaces/DAVE-4.4.2-64Bit/fh-kaernten/DAVE_M2M_1/XMC4500_MTSR_Start_002/Libraries/XMCLib/inc\xmc_rtc.h ****  * Gets the RTC module prescaler value <br>
 411:C:/Workspaces/DAVE-4.4.2-64Bit/fh-kaernten/DAVE_M2M_1/XMC4500_MTSR_Start_002/Libraries/XMCLib/inc\xmc_rtc.h ****  *
 412:C:/Workspaces/DAVE-4.4.2-64Bit/fh-kaernten/DAVE_M2M_1/XMC4500_MTSR_Start_002/Libraries/XMCLib/inc\xmc_rtc.h ****  * \par
 413:C:/Workspaces/DAVE-4.4.2-64Bit/fh-kaernten/DAVE_M2M_1/XMC4500_MTSR_Start_002/Libraries/XMCLib/inc\xmc_rtc.h ****  * The function reads the CTR.DIV bitfield to get the prescalar value. The default value 
 414:C:/Workspaces/DAVE-4.4.2-64Bit/fh-kaernten/DAVE_M2M_1/XMC4500_MTSR_Start_002/Libraries/XMCLib/inc\xmc_rtc.h ****  * for the prescalar with the 32.768kHz crystal (or the internal clock) is 7FFFH for a 
 415:C:/Workspaces/DAVE-4.4.2-64Bit/fh-kaernten/DAVE_M2M_1/XMC4500_MTSR_Start_002/Libraries/XMCLib/inc\xmc_rtc.h ****  * time interval of 1 sec.
 416:C:/Workspaces/DAVE-4.4.2-64Bit/fh-kaernten/DAVE_M2M_1/XMC4500_MTSR_Start_002/Libraries/XMCLib/inc\xmc_rtc.h ****  *
 417:C:/Workspaces/DAVE-4.4.2-64Bit/fh-kaernten/DAVE_M2M_1/XMC4500_MTSR_Start_002/Libraries/XMCLib/inc\xmc_rtc.h ****  * \par<b>Related APIs:</b><br>
 418:C:/Workspaces/DAVE-4.4.2-64Bit/fh-kaernten/DAVE_M2M_1/XMC4500_MTSR_Start_002/Libraries/XMCLib/inc\xmc_rtc.h ****  * XMC_RTC_SetPrescaler()
 419:C:/Workspaces/DAVE-4.4.2-64Bit/fh-kaernten/DAVE_M2M_1/XMC4500_MTSR_Start_002/Libraries/XMCLib/inc\xmc_rtc.h ****  */   
 420:C:/Workspaces/DAVE-4.4.2-64Bit/fh-kaernten/DAVE_M2M_1/XMC4500_MTSR_Start_002/Libraries/XMCLib/inc\xmc_rtc.h **** __STATIC_INLINE uint32_t XMC_RTC_GetPrescaler(void)
 421:C:/Workspaces/DAVE-4.4.2-64Bit/fh-kaernten/DAVE_M2M_1/XMC4500_MTSR_Start_002/Libraries/XMCLib/inc\xmc_rtc.h **** {
 422:C:/Workspaces/DAVE-4.4.2-64Bit/fh-kaernten/DAVE_M2M_1/XMC4500_MTSR_Start_002/Libraries/XMCLib/inc\xmc_rtc.h ****   return (uint32_t)(((uint32_t)RTC->CTR & (uint32_t)RTC_CTR_DIV_Msk) >> (uint32_t)RTC_CTR_DIV_Pos);
 423:C:/Workspaces/DAVE-4.4.2-64Bit/fh-kaernten/DAVE_M2M_1/XMC4500_MTSR_Start_002/Libraries/XMCLib/inc\xmc_rtc.h **** }
 424:C:/Workspaces/DAVE-4.4.2-64Bit/fh-kaernten/DAVE_M2M_1/XMC4500_MTSR_Start_002/Libraries/XMCLib/inc\xmc_rtc.h **** 
 425:C:/Workspaces/DAVE-4.4.2-64Bit/fh-kaernten/DAVE_M2M_1/XMC4500_MTSR_Start_002/Libraries/XMCLib/inc\xmc_rtc.h **** /**
 426:C:/Workspaces/DAVE-4.4.2-64Bit/fh-kaernten/DAVE_M2M_1/XMC4500_MTSR_Start_002/Libraries/XMCLib/inc\xmc_rtc.h ****  * @param timeval Contstant pointer to a constant ::XMC_RTC_TIME_t structure containing the
 427:C:/Workspaces/DAVE-4.4.2-64Bit/fh-kaernten/DAVE_M2M_1/XMC4500_MTSR_Start_002/Libraries/XMCLib/inc\xmc_rtc.h ****  *                time parameters seconds, minutes, hours, days, daysofweek, month and year.     
 428:C:/Workspaces/DAVE-4.4.2-64Bit/fh-kaernten/DAVE_M2M_1/XMC4500_MTSR_Start_002/Libraries/XMCLib/inc\xmc_rtc.h ****  * @return None
 429:C:/Workspaces/DAVE-4.4.2-64Bit/fh-kaernten/DAVE_M2M_1/XMC4500_MTSR_Start_002/Libraries/XMCLib/inc\xmc_rtc.h ****  *
 430:C:/Workspaces/DAVE-4.4.2-64Bit/fh-kaernten/DAVE_M2M_1/XMC4500_MTSR_Start_002/Libraries/XMCLib/inc\xmc_rtc.h ****  * \par<b>Description: </b><br>
 431:C:/Workspaces/DAVE-4.4.2-64Bit/fh-kaernten/DAVE_M2M_1/XMC4500_MTSR_Start_002/Libraries/XMCLib/inc\xmc_rtc.h ****  * Sets the RTC module time values <br>
 432:C:/Workspaces/DAVE-4.4.2-64Bit/fh-kaernten/DAVE_M2M_1/XMC4500_MTSR_Start_002/Libraries/XMCLib/inc\xmc_rtc.h ****  *
 433:C:/Workspaces/DAVE-4.4.2-64Bit/fh-kaernten/DAVE_M2M_1/XMC4500_MTSR_Start_002/Libraries/XMCLib/inc\xmc_rtc.h ****  * \par
 434:C:/Workspaces/DAVE-4.4.2-64Bit/fh-kaernten/DAVE_M2M_1/XMC4500_MTSR_Start_002/Libraries/XMCLib/inc\xmc_rtc.h ****  * The function sets the TIM0, TIM1 registers with time values.
 435:C:/Workspaces/DAVE-4.4.2-64Bit/fh-kaernten/DAVE_M2M_1/XMC4500_MTSR_Start_002/Libraries/XMCLib/inc\xmc_rtc.h ****  * The values can only be written when RTC is disabled.
 436:C:/Workspaces/DAVE-4.4.2-64Bit/fh-kaernten/DAVE_M2M_1/XMC4500_MTSR_Start_002/Libraries/XMCLib/inc\xmc_rtc.h ****  * See the structure ::XMC_RTC_TIME_t for the valid range of time value parameters. <br>
 437:C:/Workspaces/DAVE-4.4.2-64Bit/fh-kaernten/DAVE_M2M_1/XMC4500_MTSR_Start_002/Libraries/XMCLib/inc\xmc_rtc.h ****  *
 438:C:/Workspaces/DAVE-4.4.2-64Bit/fh-kaernten/DAVE_M2M_1/XMC4500_MTSR_Start_002/Libraries/XMCLib/inc\xmc_rtc.h ****  * \par<b>Related APIs:</b><br>
 439:C:/Workspaces/DAVE-4.4.2-64Bit/fh-kaernten/DAVE_M2M_1/XMC4500_MTSR_Start_002/Libraries/XMCLib/inc\xmc_rtc.h ****  * XMC_RTC_GetTime(), XMC_RTC_Stop() 
 440:C:/Workspaces/DAVE-4.4.2-64Bit/fh-kaernten/DAVE_M2M_1/XMC4500_MTSR_Start_002/Libraries/XMCLib/inc\xmc_rtc.h ****  */    
 441:C:/Workspaces/DAVE-4.4.2-64Bit/fh-kaernten/DAVE_M2M_1/XMC4500_MTSR_Start_002/Libraries/XMCLib/inc\xmc_rtc.h **** void XMC_RTC_SetTime(const XMC_RTC_TIME_t *const timeval);
 442:C:/Workspaces/DAVE-4.4.2-64Bit/fh-kaernten/DAVE_M2M_1/XMC4500_MTSR_Start_002/Libraries/XMCLib/inc\xmc_rtc.h **** 
 443:C:/Workspaces/DAVE-4.4.2-64Bit/fh-kaernten/DAVE_M2M_1/XMC4500_MTSR_Start_002/Libraries/XMCLib/inc\xmc_rtc.h **** /**
 444:C:/Workspaces/DAVE-4.4.2-64Bit/fh-kaernten/DAVE_M2M_1/XMC4500_MTSR_Start_002/Libraries/XMCLib/inc\xmc_rtc.h ****  * @param time Pointer to a constant ::XMC_RTC_TIME_t structure containing the time parameters
 445:C:/Workspaces/DAVE-4.4.2-64Bit/fh-kaernten/DAVE_M2M_1/XMC4500_MTSR_Start_002/Libraries/XMCLib/inc\xmc_rtc.h ****  *             seconds, minutes, hours, days, daysofweek, month and year. 
 446:C:/Workspaces/DAVE-4.4.2-64Bit/fh-kaernten/DAVE_M2M_1/XMC4500_MTSR_Start_002/Libraries/XMCLib/inc\xmc_rtc.h ****  * @return None
 447:C:/Workspaces/DAVE-4.4.2-64Bit/fh-kaernten/DAVE_M2M_1/XMC4500_MTSR_Start_002/Libraries/XMCLib/inc\xmc_rtc.h ****  *
 448:C:/Workspaces/DAVE-4.4.2-64Bit/fh-kaernten/DAVE_M2M_1/XMC4500_MTSR_Start_002/Libraries/XMCLib/inc\xmc_rtc.h ****  * \par<b>Description: </b><br>
 449:C:/Workspaces/DAVE-4.4.2-64Bit/fh-kaernten/DAVE_M2M_1/XMC4500_MTSR_Start_002/Libraries/XMCLib/inc\xmc_rtc.h ****  * Gets the RTC module time value <br>
 450:C:/Workspaces/DAVE-4.4.2-64Bit/fh-kaernten/DAVE_M2M_1/XMC4500_MTSR_Start_002/Libraries/XMCLib/inc\xmc_rtc.h ****  *
 451:C:/Workspaces/DAVE-4.4.2-64Bit/fh-kaernten/DAVE_M2M_1/XMC4500_MTSR_Start_002/Libraries/XMCLib/inc\xmc_rtc.h ****  * \par
 452:C:/Workspaces/DAVE-4.4.2-64Bit/fh-kaernten/DAVE_M2M_1/XMC4500_MTSR_Start_002/Libraries/XMCLib/inc\xmc_rtc.h ****  * The function gets the time values from TIM0, TIM1 registers. 
 453:C:/Workspaces/DAVE-4.4.2-64Bit/fh-kaernten/DAVE_M2M_1/XMC4500_MTSR_Start_002/Libraries/XMCLib/inc\xmc_rtc.h ****  * See the structure ::XMC_RTC_TIME_t for the valid range of time value parameters. <br>
 454:C:/Workspaces/DAVE-4.4.2-64Bit/fh-kaernten/DAVE_M2M_1/XMC4500_MTSR_Start_002/Libraries/XMCLib/inc\xmc_rtc.h ****  *
 455:C:/Workspaces/DAVE-4.4.2-64Bit/fh-kaernten/DAVE_M2M_1/XMC4500_MTSR_Start_002/Libraries/XMCLib/inc\xmc_rtc.h ****  * \par<b>Related APIs:</b><br>
 456:C:/Workspaces/DAVE-4.4.2-64Bit/fh-kaernten/DAVE_M2M_1/XMC4500_MTSR_Start_002/Libraries/XMCLib/inc\xmc_rtc.h ****  * XMC_RTC_SetTime()
 457:C:/Workspaces/DAVE-4.4.2-64Bit/fh-kaernten/DAVE_M2M_1/XMC4500_MTSR_Start_002/Libraries/XMCLib/inc\xmc_rtc.h ****  */    
 458:C:/Workspaces/DAVE-4.4.2-64Bit/fh-kaernten/DAVE_M2M_1/XMC4500_MTSR_Start_002/Libraries/XMCLib/inc\xmc_rtc.h **** void XMC_RTC_GetTime(XMC_RTC_TIME_t *const time);
 459:C:/Workspaces/DAVE-4.4.2-64Bit/fh-kaernten/DAVE_M2M_1/XMC4500_MTSR_Start_002/Libraries/XMCLib/inc\xmc_rtc.h **** 
 460:C:/Workspaces/DAVE-4.4.2-64Bit/fh-kaernten/DAVE_M2M_1/XMC4500_MTSR_Start_002/Libraries/XMCLib/inc\xmc_rtc.h **** /**
 461:C:/Workspaces/DAVE-4.4.2-64Bit/fh-kaernten/DAVE_M2M_1/XMC4500_MTSR_Start_002/Libraries/XMCLib/inc\xmc_rtc.h ****  * @param stdtime Pointer to a constant ::tm structure containing the time parameters seconds,
 462:C:/Workspaces/DAVE-4.4.2-64Bit/fh-kaernten/DAVE_M2M_1/XMC4500_MTSR_Start_002/Libraries/XMCLib/inc\xmc_rtc.h ****  *                minutes, hours, days, daysofweek, month, year(since 1900) and days in a   
 463:C:/Workspaces/DAVE-4.4.2-64Bit/fh-kaernten/DAVE_M2M_1/XMC4500_MTSR_Start_002/Libraries/XMCLib/inc\xmc_rtc.h ****  *                year in standard format.           
 464:C:/Workspaces/DAVE-4.4.2-64Bit/fh-kaernten/DAVE_M2M_1/XMC4500_MTSR_Start_002/Libraries/XMCLib/inc\xmc_rtc.h ****  * @return None
 465:C:/Workspaces/DAVE-4.4.2-64Bit/fh-kaernten/DAVE_M2M_1/XMC4500_MTSR_Start_002/Libraries/XMCLib/inc\xmc_rtc.h ****  *
 466:C:/Workspaces/DAVE-4.4.2-64Bit/fh-kaernten/DAVE_M2M_1/XMC4500_MTSR_Start_002/Libraries/XMCLib/inc\xmc_rtc.h ****  * \par<b>Description: </b><br>
 467:C:/Workspaces/DAVE-4.4.2-64Bit/fh-kaernten/DAVE_M2M_1/XMC4500_MTSR_Start_002/Libraries/XMCLib/inc\xmc_rtc.h ****  * Gets the RTC module time value in standard format <br>
 468:C:/Workspaces/DAVE-4.4.2-64Bit/fh-kaernten/DAVE_M2M_1/XMC4500_MTSR_Start_002/Libraries/XMCLib/inc\xmc_rtc.h ****  *
 469:C:/Workspaces/DAVE-4.4.2-64Bit/fh-kaernten/DAVE_M2M_1/XMC4500_MTSR_Start_002/Libraries/XMCLib/inc\xmc_rtc.h ****  * \par
 470:C:/Workspaces/DAVE-4.4.2-64Bit/fh-kaernten/DAVE_M2M_1/XMC4500_MTSR_Start_002/Libraries/XMCLib/inc\xmc_rtc.h ****  * The function gets the time values from TIM0, TIM1 registers. 
 471:C:/Workspaces/DAVE-4.4.2-64Bit/fh-kaernten/DAVE_M2M_1/XMC4500_MTSR_Start_002/Libraries/XMCLib/inc\xmc_rtc.h ****  * See the structure ::XMC_RTC_TIME_t for the valid range of time value parameters. <br>
 472:C:/Workspaces/DAVE-4.4.2-64Bit/fh-kaernten/DAVE_M2M_1/XMC4500_MTSR_Start_002/Libraries/XMCLib/inc\xmc_rtc.h ****  * For days the valid range is (1 - Actual days of month), year (since 1900) and 
 473:C:/Workspaces/DAVE-4.4.2-64Bit/fh-kaernten/DAVE_M2M_1/XMC4500_MTSR_Start_002/Libraries/XMCLib/inc\xmc_rtc.h ****  * daysinyear (0 -365).
 474:C:/Workspaces/DAVE-4.4.2-64Bit/fh-kaernten/DAVE_M2M_1/XMC4500_MTSR_Start_002/Libraries/XMCLib/inc\xmc_rtc.h ****  *
 475:C:/Workspaces/DAVE-4.4.2-64Bit/fh-kaernten/DAVE_M2M_1/XMC4500_MTSR_Start_002/Libraries/XMCLib/inc\xmc_rtc.h ****  * \par<b>Related APIs:</b><br>
 476:C:/Workspaces/DAVE-4.4.2-64Bit/fh-kaernten/DAVE_M2M_1/XMC4500_MTSR_Start_002/Libraries/XMCLib/inc\xmc_rtc.h ****  * XMC_RTC_SetTime(), XMC_RTC_GetTime()
 477:C:/Workspaces/DAVE-4.4.2-64Bit/fh-kaernten/DAVE_M2M_1/XMC4500_MTSR_Start_002/Libraries/XMCLib/inc\xmc_rtc.h ****  */     
 478:C:/Workspaces/DAVE-4.4.2-64Bit/fh-kaernten/DAVE_M2M_1/XMC4500_MTSR_Start_002/Libraries/XMCLib/inc\xmc_rtc.h **** void XMC_RTC_GetTimeStdFormat(struct tm *const stdtime);
 479:C:/Workspaces/DAVE-4.4.2-64Bit/fh-kaernten/DAVE_M2M_1/XMC4500_MTSR_Start_002/Libraries/XMCLib/inc\xmc_rtc.h **** 
 480:C:/Workspaces/DAVE-4.4.2-64Bit/fh-kaernten/DAVE_M2M_1/XMC4500_MTSR_Start_002/Libraries/XMCLib/inc\xmc_rtc.h **** /**
 481:C:/Workspaces/DAVE-4.4.2-64Bit/fh-kaernten/DAVE_M2M_1/XMC4500_MTSR_Start_002/Libraries/XMCLib/inc\xmc_rtc.h ****  * @param timeval Contstant pointer to a constant ::XMC_RTC_ALARM_t structure containing the
 482:C:/Workspaces/DAVE-4.4.2-64Bit/fh-kaernten/DAVE_M2M_1/XMC4500_MTSR_Start_002/Libraries/XMCLib/inc\xmc_rtc.h ****  *                alarm time parameters alarm seconds, alarm minutes, alarm hours, alarm days, 
 483:C:/Workspaces/DAVE-4.4.2-64Bit/fh-kaernten/DAVE_M2M_1/XMC4500_MTSR_Start_002/Libraries/XMCLib/inc\xmc_rtc.h ****  *                alarm daysofweek, alarm month and alarm year.           
 484:C:/Workspaces/DAVE-4.4.2-64Bit/fh-kaernten/DAVE_M2M_1/XMC4500_MTSR_Start_002/Libraries/XMCLib/inc\xmc_rtc.h ****  * @return None
 485:C:/Workspaces/DAVE-4.4.2-64Bit/fh-kaernten/DAVE_M2M_1/XMC4500_MTSR_Start_002/Libraries/XMCLib/inc\xmc_rtc.h ****  *
 486:C:/Workspaces/DAVE-4.4.2-64Bit/fh-kaernten/DAVE_M2M_1/XMC4500_MTSR_Start_002/Libraries/XMCLib/inc\xmc_rtc.h ****  * \par<b>Description: </b><br>
 487:C:/Workspaces/DAVE-4.4.2-64Bit/fh-kaernten/DAVE_M2M_1/XMC4500_MTSR_Start_002/Libraries/XMCLib/inc\xmc_rtc.h ****  * Sets the RTC module alarm time value <br>
 488:C:/Workspaces/DAVE-4.4.2-64Bit/fh-kaernten/DAVE_M2M_1/XMC4500_MTSR_Start_002/Libraries/XMCLib/inc\xmc_rtc.h ****  *
 489:C:/Workspaces/DAVE-4.4.2-64Bit/fh-kaernten/DAVE_M2M_1/XMC4500_MTSR_Start_002/Libraries/XMCLib/inc\xmc_rtc.h ****  * \par
 490:C:/Workspaces/DAVE-4.4.2-64Bit/fh-kaernten/DAVE_M2M_1/XMC4500_MTSR_Start_002/Libraries/XMCLib/inc\xmc_rtc.h ****  * The function sets the ATIM0, ATIM1 registers with alarm time values. 
 491:C:/Workspaces/DAVE-4.4.2-64Bit/fh-kaernten/DAVE_M2M_1/XMC4500_MTSR_Start_002/Libraries/XMCLib/inc\xmc_rtc.h ****  * See the structure ::XMC_RTC_ALARM_t for the valid range of alarm time value parameters. <br>
 492:C:/Workspaces/DAVE-4.4.2-64Bit/fh-kaernten/DAVE_M2M_1/XMC4500_MTSR_Start_002/Libraries/XMCLib/inc\xmc_rtc.h ****  *
 493:C:/Workspaces/DAVE-4.4.2-64Bit/fh-kaernten/DAVE_M2M_1/XMC4500_MTSR_Start_002/Libraries/XMCLib/inc\xmc_rtc.h ****  * \par<b>Related APIs:</b><br>
 494:C:/Workspaces/DAVE-4.4.2-64Bit/fh-kaernten/DAVE_M2M_1/XMC4500_MTSR_Start_002/Libraries/XMCLib/inc\xmc_rtc.h ****  * XMC_RTC_GetAlarm()
 495:C:/Workspaces/DAVE-4.4.2-64Bit/fh-kaernten/DAVE_M2M_1/XMC4500_MTSR_Start_002/Libraries/XMCLib/inc\xmc_rtc.h ****  */     
 496:C:/Workspaces/DAVE-4.4.2-64Bit/fh-kaernten/DAVE_M2M_1/XMC4500_MTSR_Start_002/Libraries/XMCLib/inc\xmc_rtc.h **** void XMC_RTC_SetAlarm(const XMC_RTC_ALARM_t *const alarm);
 497:C:/Workspaces/DAVE-4.4.2-64Bit/fh-kaernten/DAVE_M2M_1/XMC4500_MTSR_Start_002/Libraries/XMCLib/inc\xmc_rtc.h **** 
 498:C:/Workspaces/DAVE-4.4.2-64Bit/fh-kaernten/DAVE_M2M_1/XMC4500_MTSR_Start_002/Libraries/XMCLib/inc\xmc_rtc.h **** /**
 499:C:/Workspaces/DAVE-4.4.2-64Bit/fh-kaernten/DAVE_M2M_1/XMC4500_MTSR_Start_002/Libraries/XMCLib/inc\xmc_rtc.h ****  * @param time Pointer to a constant ::XMC_RTC_ALARM_t structure containing the
 500:C:/Workspaces/DAVE-4.4.2-64Bit/fh-kaernten/DAVE_M2M_1/XMC4500_MTSR_Start_002/Libraries/XMCLib/inc\xmc_rtc.h ****  *             time parameters alarm seconds, alarm minutes, alarm hours, alarm days, 
 501:C:/Workspaces/DAVE-4.4.2-64Bit/fh-kaernten/DAVE_M2M_1/XMC4500_MTSR_Start_002/Libraries/XMCLib/inc\xmc_rtc.h ****  *             alarm daysofweek, alarm month and alarm year.           
 502:C:/Workspaces/DAVE-4.4.2-64Bit/fh-kaernten/DAVE_M2M_1/XMC4500_MTSR_Start_002/Libraries/XMCLib/inc\xmc_rtc.h ****  * @return None
 503:C:/Workspaces/DAVE-4.4.2-64Bit/fh-kaernten/DAVE_M2M_1/XMC4500_MTSR_Start_002/Libraries/XMCLib/inc\xmc_rtc.h ****  *
 504:C:/Workspaces/DAVE-4.4.2-64Bit/fh-kaernten/DAVE_M2M_1/XMC4500_MTSR_Start_002/Libraries/XMCLib/inc\xmc_rtc.h ****  * \par<b>Description: </b><br>
 505:C:/Workspaces/DAVE-4.4.2-64Bit/fh-kaernten/DAVE_M2M_1/XMC4500_MTSR_Start_002/Libraries/XMCLib/inc\xmc_rtc.h ****  * Gets the RTC module alarm time value <br>
 506:C:/Workspaces/DAVE-4.4.2-64Bit/fh-kaernten/DAVE_M2M_1/XMC4500_MTSR_Start_002/Libraries/XMCLib/inc\xmc_rtc.h ****  *
 507:C:/Workspaces/DAVE-4.4.2-64Bit/fh-kaernten/DAVE_M2M_1/XMC4500_MTSR_Start_002/Libraries/XMCLib/inc\xmc_rtc.h ****  * \par
 508:C:/Workspaces/DAVE-4.4.2-64Bit/fh-kaernten/DAVE_M2M_1/XMC4500_MTSR_Start_002/Libraries/XMCLib/inc\xmc_rtc.h ****  * The function gets the alarm time values from ATIM0, ATIM1 registers. 
 509:C:/Workspaces/DAVE-4.4.2-64Bit/fh-kaernten/DAVE_M2M_1/XMC4500_MTSR_Start_002/Libraries/XMCLib/inc\xmc_rtc.h ****  * See the structure ::XMC_RTC_ALARM_t for the valid range of alarm time value parameters. <br>
 510:C:/Workspaces/DAVE-4.4.2-64Bit/fh-kaernten/DAVE_M2M_1/XMC4500_MTSR_Start_002/Libraries/XMCLib/inc\xmc_rtc.h ****  *
 511:C:/Workspaces/DAVE-4.4.2-64Bit/fh-kaernten/DAVE_M2M_1/XMC4500_MTSR_Start_002/Libraries/XMCLib/inc\xmc_rtc.h ****  * \par<b>Related APIs:</b><br>
 512:C:/Workspaces/DAVE-4.4.2-64Bit/fh-kaernten/DAVE_M2M_1/XMC4500_MTSR_Start_002/Libraries/XMCLib/inc\xmc_rtc.h ****  * XMC_RTC_SetAlarm()
 513:C:/Workspaces/DAVE-4.4.2-64Bit/fh-kaernten/DAVE_M2M_1/XMC4500_MTSR_Start_002/Libraries/XMCLib/inc\xmc_rtc.h ****  */    
 514:C:/Workspaces/DAVE-4.4.2-64Bit/fh-kaernten/DAVE_M2M_1/XMC4500_MTSR_Start_002/Libraries/XMCLib/inc\xmc_rtc.h **** void XMC_RTC_GetAlarm(XMC_RTC_ALARM_t *const alarm);
 515:C:/Workspaces/DAVE-4.4.2-64Bit/fh-kaernten/DAVE_M2M_1/XMC4500_MTSR_Start_002/Libraries/XMCLib/inc\xmc_rtc.h **** 
 516:C:/Workspaces/DAVE-4.4.2-64Bit/fh-kaernten/DAVE_M2M_1/XMC4500_MTSR_Start_002/Libraries/XMCLib/inc\xmc_rtc.h **** /**
 517:C:/Workspaces/DAVE-4.4.2-64Bit/fh-kaernten/DAVE_M2M_1/XMC4500_MTSR_Start_002/Libraries/XMCLib/inc\xmc_rtc.h ****  * @param stdtime Pointer to a constant ::tm structure containing the time parameters alarm seconds
 518:C:/Workspaces/DAVE-4.4.2-64Bit/fh-kaernten/DAVE_M2M_1/XMC4500_MTSR_Start_002/Libraries/XMCLib/inc\xmc_rtc.h ****  *                alarm minutes, alarm hours, alarm days, alarm daysofweek, alarm month,  
 519:C:/Workspaces/DAVE-4.4.2-64Bit/fh-kaernten/DAVE_M2M_1/XMC4500_MTSR_Start_002/Libraries/XMCLib/inc\xmc_rtc.h ****  *                alarm year(since 1900) and alarm days in a year in standard format.           
 520:C:/Workspaces/DAVE-4.4.2-64Bit/fh-kaernten/DAVE_M2M_1/XMC4500_MTSR_Start_002/Libraries/XMCLib/inc\xmc_rtc.h ****  * @return None
 521:C:/Workspaces/DAVE-4.4.2-64Bit/fh-kaernten/DAVE_M2M_1/XMC4500_MTSR_Start_002/Libraries/XMCLib/inc\xmc_rtc.h ****  *
 522:C:/Workspaces/DAVE-4.4.2-64Bit/fh-kaernten/DAVE_M2M_1/XMC4500_MTSR_Start_002/Libraries/XMCLib/inc\xmc_rtc.h ****  * \par<b>Description: </b><br>
 523:C:/Workspaces/DAVE-4.4.2-64Bit/fh-kaernten/DAVE_M2M_1/XMC4500_MTSR_Start_002/Libraries/XMCLib/inc\xmc_rtc.h ****  * Gets the RTC module alarm time value in standard format <br>
 524:C:/Workspaces/DAVE-4.4.2-64Bit/fh-kaernten/DAVE_M2M_1/XMC4500_MTSR_Start_002/Libraries/XMCLib/inc\xmc_rtc.h ****  *
 525:C:/Workspaces/DAVE-4.4.2-64Bit/fh-kaernten/DAVE_M2M_1/XMC4500_MTSR_Start_002/Libraries/XMCLib/inc\xmc_rtc.h ****  * \par
 526:C:/Workspaces/DAVE-4.4.2-64Bit/fh-kaernten/DAVE_M2M_1/XMC4500_MTSR_Start_002/Libraries/XMCLib/inc\xmc_rtc.h ****  * The function gets the alarm time values from ATIM0, ATIM1 registers. 
 527:C:/Workspaces/DAVE-4.4.2-64Bit/fh-kaernten/DAVE_M2M_1/XMC4500_MTSR_Start_002/Libraries/XMCLib/inc\xmc_rtc.h ****  * See the structure ::XMC_RTC_ALARM_t for the valid range of alarm time value parameters. <br>
 528:C:/Workspaces/DAVE-4.4.2-64Bit/fh-kaernten/DAVE_M2M_1/XMC4500_MTSR_Start_002/Libraries/XMCLib/inc\xmc_rtc.h ****  * For days the valid range is (1 - Actual days of month), year (since 1900) and 
 529:C:/Workspaces/DAVE-4.4.2-64Bit/fh-kaernten/DAVE_M2M_1/XMC4500_MTSR_Start_002/Libraries/XMCLib/inc\xmc_rtc.h ****  * daysinyear (0 -365).
 530:C:/Workspaces/DAVE-4.4.2-64Bit/fh-kaernten/DAVE_M2M_1/XMC4500_MTSR_Start_002/Libraries/XMCLib/inc\xmc_rtc.h ****  *
 531:C:/Workspaces/DAVE-4.4.2-64Bit/fh-kaernten/DAVE_M2M_1/XMC4500_MTSR_Start_002/Libraries/XMCLib/inc\xmc_rtc.h ****  * \par<b>Related APIs:</b><br>
 532:C:/Workspaces/DAVE-4.4.2-64Bit/fh-kaernten/DAVE_M2M_1/XMC4500_MTSR_Start_002/Libraries/XMCLib/inc\xmc_rtc.h ****  * XMC_RTC_SetAlarm(), XMC_RTC_GetAlarm()
 533:C:/Workspaces/DAVE-4.4.2-64Bit/fh-kaernten/DAVE_M2M_1/XMC4500_MTSR_Start_002/Libraries/XMCLib/inc\xmc_rtc.h ****  */     
 534:C:/Workspaces/DAVE-4.4.2-64Bit/fh-kaernten/DAVE_M2M_1/XMC4500_MTSR_Start_002/Libraries/XMCLib/inc\xmc_rtc.h **** void XMC_RTC_GetAlarmStdFormat(struct tm *const stdtime);
 535:C:/Workspaces/DAVE-4.4.2-64Bit/fh-kaernten/DAVE_M2M_1/XMC4500_MTSR_Start_002/Libraries/XMCLib/inc\xmc_rtc.h **** 
 536:C:/Workspaces/DAVE-4.4.2-64Bit/fh-kaernten/DAVE_M2M_1/XMC4500_MTSR_Start_002/Libraries/XMCLib/inc\xmc_rtc.h **** /**
 537:C:/Workspaces/DAVE-4.4.2-64Bit/fh-kaernten/DAVE_M2M_1/XMC4500_MTSR_Start_002/Libraries/XMCLib/inc\xmc_rtc.h ****  * @param event A valid RTC event (::XMC_RTC_EVENT_t) or a valid combination of
 538:C:/Workspaces/DAVE-4.4.2-64Bit/fh-kaernten/DAVE_M2M_1/XMC4500_MTSR_Start_002/Libraries/XMCLib/inc\xmc_rtc.h ****  *              logically OR'd events
 539:C:/Workspaces/DAVE-4.4.2-64Bit/fh-kaernten/DAVE_M2M_1/XMC4500_MTSR_Start_002/Libraries/XMCLib/inc\xmc_rtc.h ****  * @return None
 540:C:/Workspaces/DAVE-4.4.2-64Bit/fh-kaernten/DAVE_M2M_1/XMC4500_MTSR_Start_002/Libraries/XMCLib/inc\xmc_rtc.h ****  *
 541:C:/Workspaces/DAVE-4.4.2-64Bit/fh-kaernten/DAVE_M2M_1/XMC4500_MTSR_Start_002/Libraries/XMCLib/inc\xmc_rtc.h ****  * \par<b>Description: </b><br>
 542:C:/Workspaces/DAVE-4.4.2-64Bit/fh-kaernten/DAVE_M2M_1/XMC4500_MTSR_Start_002/Libraries/XMCLib/inc\xmc_rtc.h ****  * Enable RTC periodic and alarm event(s) <br>
 543:C:/Workspaces/DAVE-4.4.2-64Bit/fh-kaernten/DAVE_M2M_1/XMC4500_MTSR_Start_002/Libraries/XMCLib/inc\xmc_rtc.h ****  *
 544:C:/Workspaces/DAVE-4.4.2-64Bit/fh-kaernten/DAVE_M2M_1/XMC4500_MTSR_Start_002/Libraries/XMCLib/inc\xmc_rtc.h ****  * \par
 545:C:/Workspaces/DAVE-4.4.2-64Bit/fh-kaernten/DAVE_M2M_1/XMC4500_MTSR_Start_002/Libraries/XMCLib/inc\xmc_rtc.h ****  * The function sets the bitfields of MSKSR register to enable interrupt generation 
 546:C:/Workspaces/DAVE-4.4.2-64Bit/fh-kaernten/DAVE_M2M_1/XMC4500_MTSR_Start_002/Libraries/XMCLib/inc\xmc_rtc.h ****  * for requested RTC event(s). 
 547:C:/Workspaces/DAVE-4.4.2-64Bit/fh-kaernten/DAVE_M2M_1/XMC4500_MTSR_Start_002/Libraries/XMCLib/inc\xmc_rtc.h ****  * Setting the masking value for the event(s) containing in the ::XMC_RTC_EVENT_t leads 
 548:C:/Workspaces/DAVE-4.4.2-64Bit/fh-kaernten/DAVE_M2M_1/XMC4500_MTSR_Start_002/Libraries/XMCLib/inc\xmc_rtc.h ****  * to a generation of the interrupt.
 549:C:/Workspaces/DAVE-4.4.2-64Bit/fh-kaernten/DAVE_M2M_1/XMC4500_MTSR_Start_002/Libraries/XMCLib/inc\xmc_rtc.h ****  *
 550:C:/Workspaces/DAVE-4.4.2-64Bit/fh-kaernten/DAVE_M2M_1/XMC4500_MTSR_Start_002/Libraries/XMCLib/inc\xmc_rtc.h ****  * \par<b>Related APIs:</b><br>
 551:C:/Workspaces/DAVE-4.4.2-64Bit/fh-kaernten/DAVE_M2M_1/XMC4500_MTSR_Start_002/Libraries/XMCLib/inc\xmc_rtc.h ****  * XMC_RTC_DisableEvent()
 552:C:/Workspaces/DAVE-4.4.2-64Bit/fh-kaernten/DAVE_M2M_1/XMC4500_MTSR_Start_002/Libraries/XMCLib/inc\xmc_rtc.h ****  */
 553:C:/Workspaces/DAVE-4.4.2-64Bit/fh-kaernten/DAVE_M2M_1/XMC4500_MTSR_Start_002/Libraries/XMCLib/inc\xmc_rtc.h **** void XMC_RTC_EnableEvent(const uint32_t event);
 554:C:/Workspaces/DAVE-4.4.2-64Bit/fh-kaernten/DAVE_M2M_1/XMC4500_MTSR_Start_002/Libraries/XMCLib/inc\xmc_rtc.h **** 
 555:C:/Workspaces/DAVE-4.4.2-64Bit/fh-kaernten/DAVE_M2M_1/XMC4500_MTSR_Start_002/Libraries/XMCLib/inc\xmc_rtc.h **** /**
 556:C:/Workspaces/DAVE-4.4.2-64Bit/fh-kaernten/DAVE_M2M_1/XMC4500_MTSR_Start_002/Libraries/XMCLib/inc\xmc_rtc.h ****  * @param event A valid RTC event (::XMC_RTC_EVENT_t) or a valid combination of
 557:C:/Workspaces/DAVE-4.4.2-64Bit/fh-kaernten/DAVE_M2M_1/XMC4500_MTSR_Start_002/Libraries/XMCLib/inc\xmc_rtc.h ****  *              logically OR'd events
 558:C:/Workspaces/DAVE-4.4.2-64Bit/fh-kaernten/DAVE_M2M_1/XMC4500_MTSR_Start_002/Libraries/XMCLib/inc\xmc_rtc.h ****  * @return None
 559:C:/Workspaces/DAVE-4.4.2-64Bit/fh-kaernten/DAVE_M2M_1/XMC4500_MTSR_Start_002/Libraries/XMCLib/inc\xmc_rtc.h ****  *
 560:C:/Workspaces/DAVE-4.4.2-64Bit/fh-kaernten/DAVE_M2M_1/XMC4500_MTSR_Start_002/Libraries/XMCLib/inc\xmc_rtc.h ****  * \par<b>Description: </b><br>
 561:C:/Workspaces/DAVE-4.4.2-64Bit/fh-kaernten/DAVE_M2M_1/XMC4500_MTSR_Start_002/Libraries/XMCLib/inc\xmc_rtc.h ****  * Disable RTC periodic and alarm event(s) <br>
 562:C:/Workspaces/DAVE-4.4.2-64Bit/fh-kaernten/DAVE_M2M_1/XMC4500_MTSR_Start_002/Libraries/XMCLib/inc\xmc_rtc.h ****  *
 563:C:/Workspaces/DAVE-4.4.2-64Bit/fh-kaernten/DAVE_M2M_1/XMC4500_MTSR_Start_002/Libraries/XMCLib/inc\xmc_rtc.h ****  * \par
 564:C:/Workspaces/DAVE-4.4.2-64Bit/fh-kaernten/DAVE_M2M_1/XMC4500_MTSR_Start_002/Libraries/XMCLib/inc\xmc_rtc.h ****  * The function resets the bitfields of MSKSR register to disable interrupt generation 
 565:C:/Workspaces/DAVE-4.4.2-64Bit/fh-kaernten/DAVE_M2M_1/XMC4500_MTSR_Start_002/Libraries/XMCLib/inc\xmc_rtc.h ****  * for requested RTC event(s). 
 566:C:/Workspaces/DAVE-4.4.2-64Bit/fh-kaernten/DAVE_M2M_1/XMC4500_MTSR_Start_002/Libraries/XMCLib/inc\xmc_rtc.h ****  * Resetting the masking value for the the event(s) containing in the ::XMC_RTC_EVENT_t blocks 
 567:C:/Workspaces/DAVE-4.4.2-64Bit/fh-kaernten/DAVE_M2M_1/XMC4500_MTSR_Start_002/Libraries/XMCLib/inc\xmc_rtc.h ****  * the generation of the interrupt.
 568:C:/Workspaces/DAVE-4.4.2-64Bit/fh-kaernten/DAVE_M2M_1/XMC4500_MTSR_Start_002/Libraries/XMCLib/inc\xmc_rtc.h ****  * 
 569:C:/Workspaces/DAVE-4.4.2-64Bit/fh-kaernten/DAVE_M2M_1/XMC4500_MTSR_Start_002/Libraries/XMCLib/inc\xmc_rtc.h ****  * \par<b>Related APIs:</b><br>
 570:C:/Workspaces/DAVE-4.4.2-64Bit/fh-kaernten/DAVE_M2M_1/XMC4500_MTSR_Start_002/Libraries/XMCLib/inc\xmc_rtc.h ****  * XMC_RTC_EnableEvent()
 571:C:/Workspaces/DAVE-4.4.2-64Bit/fh-kaernten/DAVE_M2M_1/XMC4500_MTSR_Start_002/Libraries/XMCLib/inc\xmc_rtc.h ****  */
 572:C:/Workspaces/DAVE-4.4.2-64Bit/fh-kaernten/DAVE_M2M_1/XMC4500_MTSR_Start_002/Libraries/XMCLib/inc\xmc_rtc.h **** void XMC_RTC_DisableEvent(const uint32_t event);
 573:C:/Workspaces/DAVE-4.4.2-64Bit/fh-kaernten/DAVE_M2M_1/XMC4500_MTSR_Start_002/Libraries/XMCLib/inc\xmc_rtc.h **** 
 574:C:/Workspaces/DAVE-4.4.2-64Bit/fh-kaernten/DAVE_M2M_1/XMC4500_MTSR_Start_002/Libraries/XMCLib/inc\xmc_rtc.h **** /**
 575:C:/Workspaces/DAVE-4.4.2-64Bit/fh-kaernten/DAVE_M2M_1/XMC4500_MTSR_Start_002/Libraries/XMCLib/inc\xmc_rtc.h ****  * @param event A valid RTC event (::XMC_RTC_EVENT_t) or a valid combination of
 576:C:/Workspaces/DAVE-4.4.2-64Bit/fh-kaernten/DAVE_M2M_1/XMC4500_MTSR_Start_002/Libraries/XMCLib/inc\xmc_rtc.h ****  *              logically OR'd events
 577:C:/Workspaces/DAVE-4.4.2-64Bit/fh-kaernten/DAVE_M2M_1/XMC4500_MTSR_Start_002/Libraries/XMCLib/inc\xmc_rtc.h ****  * @return None
 578:C:/Workspaces/DAVE-4.4.2-64Bit/fh-kaernten/DAVE_M2M_1/XMC4500_MTSR_Start_002/Libraries/XMCLib/inc\xmc_rtc.h ****  *
 579:C:/Workspaces/DAVE-4.4.2-64Bit/fh-kaernten/DAVE_M2M_1/XMC4500_MTSR_Start_002/Libraries/XMCLib/inc\xmc_rtc.h ****  * \par<b>Description: </b><br>
 580:C:/Workspaces/DAVE-4.4.2-64Bit/fh-kaernten/DAVE_M2M_1/XMC4500_MTSR_Start_002/Libraries/XMCLib/inc\xmc_rtc.h ****  * Clears periodic and alarm event(s) status <br>
 581:C:/Workspaces/DAVE-4.4.2-64Bit/fh-kaernten/DAVE_M2M_1/XMC4500_MTSR_Start_002/Libraries/XMCLib/inc\xmc_rtc.h ****  *
 582:C:/Workspaces/DAVE-4.4.2-64Bit/fh-kaernten/DAVE_M2M_1/XMC4500_MTSR_Start_002/Libraries/XMCLib/inc\xmc_rtc.h ****  * \par
 583:C:/Workspaces/DAVE-4.4.2-64Bit/fh-kaernten/DAVE_M2M_1/XMC4500_MTSR_Start_002/Libraries/XMCLib/inc\xmc_rtc.h ****  * The function sets the bitfields of CLRSR register to clear status bits in RAWSTAT and STSSR regi
 584:C:/Workspaces/DAVE-4.4.2-64Bit/fh-kaernten/DAVE_M2M_1/XMC4500_MTSR_Start_002/Libraries/XMCLib/inc\xmc_rtc.h ****  * Setting the value for the the RTC event(s) containing in the ::XMC_RTC_EVENT_t clears the 
 585:C:/Workspaces/DAVE-4.4.2-64Bit/fh-kaernten/DAVE_M2M_1/XMC4500_MTSR_Start_002/Libraries/XMCLib/inc\xmc_rtc.h ****  * corresponding status bits in RAWSTAT and STSSR registers.
 586:C:/Workspaces/DAVE-4.4.2-64Bit/fh-kaernten/DAVE_M2M_1/XMC4500_MTSR_Start_002/Libraries/XMCLib/inc\xmc_rtc.h ****  * 
 587:C:/Workspaces/DAVE-4.4.2-64Bit/fh-kaernten/DAVE_M2M_1/XMC4500_MTSR_Start_002/Libraries/XMCLib/inc\xmc_rtc.h ****  * \par<b>Related APIs:</b><br>
 588:C:/Workspaces/DAVE-4.4.2-64Bit/fh-kaernten/DAVE_M2M_1/XMC4500_MTSR_Start_002/Libraries/XMCLib/inc\xmc_rtc.h ****  * XMC_RTC_GetEventStatus()
 589:C:/Workspaces/DAVE-4.4.2-64Bit/fh-kaernten/DAVE_M2M_1/XMC4500_MTSR_Start_002/Libraries/XMCLib/inc\xmc_rtc.h ****  */ 
 590:C:/Workspaces/DAVE-4.4.2-64Bit/fh-kaernten/DAVE_M2M_1/XMC4500_MTSR_Start_002/Libraries/XMCLib/inc\xmc_rtc.h **** void XMC_RTC_ClearEvent(const uint32_t event);
 591:C:/Workspaces/DAVE-4.4.2-64Bit/fh-kaernten/DAVE_M2M_1/XMC4500_MTSR_Start_002/Libraries/XMCLib/inc\xmc_rtc.h **** 
 592:C:/Workspaces/DAVE-4.4.2-64Bit/fh-kaernten/DAVE_M2M_1/XMC4500_MTSR_Start_002/Libraries/XMCLib/inc\xmc_rtc.h **** /**
 593:C:/Workspaces/DAVE-4.4.2-64Bit/fh-kaernten/DAVE_M2M_1/XMC4500_MTSR_Start_002/Libraries/XMCLib/inc\xmc_rtc.h ****  * @return None
 594:C:/Workspaces/DAVE-4.4.2-64Bit/fh-kaernten/DAVE_M2M_1/XMC4500_MTSR_Start_002/Libraries/XMCLib/inc\xmc_rtc.h ****  *
 595:C:/Workspaces/DAVE-4.4.2-64Bit/fh-kaernten/DAVE_M2M_1/XMC4500_MTSR_Start_002/Libraries/XMCLib/inc\xmc_rtc.h ****  * \par<b>Description: </b><br>
 596:C:/Workspaces/DAVE-4.4.2-64Bit/fh-kaernten/DAVE_M2M_1/XMC4500_MTSR_Start_002/Libraries/XMCLib/inc\xmc_rtc.h ****  * Gets the RTC periodic and alarm event(s) status <br>
 597:C:/Workspaces/DAVE-4.4.2-64Bit/fh-kaernten/DAVE_M2M_1/XMC4500_MTSR_Start_002/Libraries/XMCLib/inc\xmc_rtc.h ****  *
 598:C:/Workspaces/DAVE-4.4.2-64Bit/fh-kaernten/DAVE_M2M_1/XMC4500_MTSR_Start_002/Libraries/XMCLib/inc\xmc_rtc.h ****  * \par
 599:C:/Workspaces/DAVE-4.4.2-64Bit/fh-kaernten/DAVE_M2M_1/XMC4500_MTSR_Start_002/Libraries/XMCLib/inc\xmc_rtc.h ****  * The function reads the bitfields of STSSR register 
 600:C:/Workspaces/DAVE-4.4.2-64Bit/fh-kaernten/DAVE_M2M_1/XMC4500_MTSR_Start_002/Libraries/XMCLib/inc\xmc_rtc.h ****  * to get the status of RTC events. 
 601:C:/Workspaces/DAVE-4.4.2-64Bit/fh-kaernten/DAVE_M2M_1/XMC4500_MTSR_Start_002/Libraries/XMCLib/inc\xmc_rtc.h ****  * Reading the value of the register STSSR gives the status of the event(s) containing in the ::XMC
 602:C:/Workspaces/DAVE-4.4.2-64Bit/fh-kaernten/DAVE_M2M_1/XMC4500_MTSR_Start_002/Libraries/XMCLib/inc\xmc_rtc.h ****  * 
 603:C:/Workspaces/DAVE-4.4.2-64Bit/fh-kaernten/DAVE_M2M_1/XMC4500_MTSR_Start_002/Libraries/XMCLib/inc\xmc_rtc.h ****  * \par<b>Related APIs:</b><br>
 604:C:/Workspaces/DAVE-4.4.2-64Bit/fh-kaernten/DAVE_M2M_1/XMC4500_MTSR_Start_002/Libraries/XMCLib/inc\xmc_rtc.h ****  * XMC_RTC_ClearEvent()
 605:C:/Workspaces/DAVE-4.4.2-64Bit/fh-kaernten/DAVE_M2M_1/XMC4500_MTSR_Start_002/Libraries/XMCLib/inc\xmc_rtc.h ****  */
 606:C:/Workspaces/DAVE-4.4.2-64Bit/fh-kaernten/DAVE_M2M_1/XMC4500_MTSR_Start_002/Libraries/XMCLib/inc\xmc_rtc.h **** uint32_t XMC_RTC_GetEventStatus(void);
 607:C:/Workspaces/DAVE-4.4.2-64Bit/fh-kaernten/DAVE_M2M_1/XMC4500_MTSR_Start_002/Libraries/XMCLib/inc\xmc_rtc.h **** 
 608:C:/Workspaces/DAVE-4.4.2-64Bit/fh-kaernten/DAVE_M2M_1/XMC4500_MTSR_Start_002/Libraries/XMCLib/inc\xmc_rtc.h **** /**
 609:C:/Workspaces/DAVE-4.4.2-64Bit/fh-kaernten/DAVE_M2M_1/XMC4500_MTSR_Start_002/Libraries/XMCLib/inc\xmc_rtc.h ****  * @return bool true if RTC is running
 610:C:/Workspaces/DAVE-4.4.2-64Bit/fh-kaernten/DAVE_M2M_1/XMC4500_MTSR_Start_002/Libraries/XMCLib/inc\xmc_rtc.h ****  *              false if RTC is not running
 611:C:/Workspaces/DAVE-4.4.2-64Bit/fh-kaernten/DAVE_M2M_1/XMC4500_MTSR_Start_002/Libraries/XMCLib/inc\xmc_rtc.h ****  *
 612:C:/Workspaces/DAVE-4.4.2-64Bit/fh-kaernten/DAVE_M2M_1/XMC4500_MTSR_Start_002/Libraries/XMCLib/inc\xmc_rtc.h ****  * \par<b>Description: </b><br>
 613:C:/Workspaces/DAVE-4.4.2-64Bit/fh-kaernten/DAVE_M2M_1/XMC4500_MTSR_Start_002/Libraries/XMCLib/inc\xmc_rtc.h ****  * Checks the running status of the RTC <br>
 614:C:/Workspaces/DAVE-4.4.2-64Bit/fh-kaernten/DAVE_M2M_1/XMC4500_MTSR_Start_002/Libraries/XMCLib/inc\xmc_rtc.h ****  *
 615:C:/Workspaces/DAVE-4.4.2-64Bit/fh-kaernten/DAVE_M2M_1/XMC4500_MTSR_Start_002/Libraries/XMCLib/inc\xmc_rtc.h ****  * \par
 616:C:/Workspaces/DAVE-4.4.2-64Bit/fh-kaernten/DAVE_M2M_1/XMC4500_MTSR_Start_002/Libraries/XMCLib/inc\xmc_rtc.h ****  * The function reads the bitfield ENB of CTR register 
 617:C:/Workspaces/DAVE-4.4.2-64Bit/fh-kaernten/DAVE_M2M_1/XMC4500_MTSR_Start_002/Libraries/XMCLib/inc\xmc_rtc.h ****  * to get the running status of RTC. 
 618:C:/Workspaces/DAVE-4.4.2-64Bit/fh-kaernten/DAVE_M2M_1/XMC4500_MTSR_Start_002/Libraries/XMCLib/inc\xmc_rtc.h ****  *
 619:C:/Workspaces/DAVE-4.4.2-64Bit/fh-kaernten/DAVE_M2M_1/XMC4500_MTSR_Start_002/Libraries/XMCLib/inc\xmc_rtc.h ****  * \par<b>Related APIs:</b><br>
 620:C:/Workspaces/DAVE-4.4.2-64Bit/fh-kaernten/DAVE_M2M_1/XMC4500_MTSR_Start_002/Libraries/XMCLib/inc\xmc_rtc.h ****  * XMC_RTC_Start(), XMC_RTC_Stop()
 621:C:/Workspaces/DAVE-4.4.2-64Bit/fh-kaernten/DAVE_M2M_1/XMC4500_MTSR_Start_002/Libraries/XMCLib/inc\xmc_rtc.h ****  */ 
 622:C:/Workspaces/DAVE-4.4.2-64Bit/fh-kaernten/DAVE_M2M_1/XMC4500_MTSR_Start_002/Libraries/XMCLib/inc\xmc_rtc.h **** __STATIC_INLINE bool XMC_RTC_IsRunning(void)
 623:C:/Workspaces/DAVE-4.4.2-64Bit/fh-kaernten/DAVE_M2M_1/XMC4500_MTSR_Start_002/Libraries/XMCLib/inc\xmc_rtc.h **** {
  26              	 .loc 1 623 0
  27              	 .cfi_startproc
  28              	 
  29              	 
  30              	 
  31 0000 80B4     	 push {r7}
  32              	.LCFI0:
  33              	 .cfi_def_cfa_offset 4
  34              	 .cfi_offset 7,-4
  35 0002 00AF     	 add r7,sp,#0
  36              	.LCFI1:
  37              	 .cfi_def_cfa_register 7
 624:C:/Workspaces/DAVE-4.4.2-64Bit/fh-kaernten/DAVE_M2M_1/XMC4500_MTSR_Start_002/Libraries/XMCLib/inc\xmc_rtc.h ****   return (bool)(RTC->CTR & RTC_CTR_ENB_Msk);
  38              	 .loc 1 624 0
  39 0004 064B     	 ldr r3,.L3
  40 0006 5B68     	 ldr r3,[r3,#4]
  41 0008 03F00103 	 and r3,r3,#1
  42 000c 002B     	 cmp r3,#0
  43 000e 14BF     	 ite ne
  44 0010 0123     	 movne r3,#1
  45 0012 0023     	 moveq r3,#0
  46 0014 DBB2     	 uxtb r3,r3
 625:C:/Workspaces/DAVE-4.4.2-64Bit/fh-kaernten/DAVE_M2M_1/XMC4500_MTSR_Start_002/Libraries/XMCLib/inc\xmc_rtc.h **** }
  47              	 .loc 1 625 0
  48 0016 1846     	 mov r0,r3
  49 0018 BD46     	 mov sp,r7
  50              	.LCFI2:
  51              	 .cfi_def_cfa_register 13
  52              	 
  53 001a 5DF8047B 	 ldr r7,[sp],#4
  54              	.LCFI3:
  55              	 .cfi_restore 7
  56              	 .cfi_def_cfa_offset 0
  57 001e 7047     	 bx lr
  58              	.L4:
  59              	 .align 2
  60              	.L3:
  61 0020 004A0050 	 .word 1342196224
  62              	 .cfi_endproc
  63              	.LFE154:
  65              	 .section .text.GLOBAL_SCU_XMC4_EnableEvent,"ax",%progbits
  66              	 .align 2
  67              	 .thumb
  68              	 .thumb_func
  70              	GLOBAL_SCU_XMC4_EnableEvent:
  71              	.LFB157:
  72              	 .file 2 "C:/Workspaces/DAVE-4.4.2-64Bit/fh-kaernten/DAVE_M2M_1/XMC4500_MTSR_Start_002/Dave/Generated/GLOBAL_SCU_XMC4/global_scu_xmc4.h"
   1:C:/Workspaces/DAVE-4.4.2-64Bit/fh-kaernten/DAVE_M2M_1/XMC4500_MTSR_Start_002/Dave/Generated/GLOBAL_SCU_XMC4\global_scu_xmc4.h **** /**
   2:C:/Workspaces/DAVE-4.4.2-64Bit/fh-kaernten/DAVE_M2M_1/XMC4500_MTSR_Start_002/Dave/Generated/GLOBAL_SCU_XMC4\global_scu_xmc4.h ****  * @file global_scu_xmc4.h
   3:C:/Workspaces/DAVE-4.4.2-64Bit/fh-kaernten/DAVE_M2M_1/XMC4500_MTSR_Start_002/Dave/Generated/GLOBAL_SCU_XMC4\global_scu_xmc4.h ****  * @date 2015-06-26
   4:C:/Workspaces/DAVE-4.4.2-64Bit/fh-kaernten/DAVE_M2M_1/XMC4500_MTSR_Start_002/Dave/Generated/GLOBAL_SCU_XMC4\global_scu_xmc4.h ****  *
   5:C:/Workspaces/DAVE-4.4.2-64Bit/fh-kaernten/DAVE_M2M_1/XMC4500_MTSR_Start_002/Dave/Generated/GLOBAL_SCU_XMC4\global_scu_xmc4.h ****  * NOTE:
   6:C:/Workspaces/DAVE-4.4.2-64Bit/fh-kaernten/DAVE_M2M_1/XMC4500_MTSR_Start_002/Dave/Generated/GLOBAL_SCU_XMC4\global_scu_xmc4.h ****  * This file is generated by DAVE. Any manual modification done to this file will be lost when the 
   7:C:/Workspaces/DAVE-4.4.2-64Bit/fh-kaernten/DAVE_M2M_1/XMC4500_MTSR_Start_002/Dave/Generated/GLOBAL_SCU_XMC4\global_scu_xmc4.h ****  * regenerated.
   8:C:/Workspaces/DAVE-4.4.2-64Bit/fh-kaernten/DAVE_M2M_1/XMC4500_MTSR_Start_002/Dave/Generated/GLOBAL_SCU_XMC4\global_scu_xmc4.h ****  */
   9:C:/Workspaces/DAVE-4.4.2-64Bit/fh-kaernten/DAVE_M2M_1/XMC4500_MTSR_Start_002/Dave/Generated/GLOBAL_SCU_XMC4\global_scu_xmc4.h **** /**
  10:C:/Workspaces/DAVE-4.4.2-64Bit/fh-kaernten/DAVE_M2M_1/XMC4500_MTSR_Start_002/Dave/Generated/GLOBAL_SCU_XMC4\global_scu_xmc4.h ****  * @cond
  11:C:/Workspaces/DAVE-4.4.2-64Bit/fh-kaernten/DAVE_M2M_1/XMC4500_MTSR_Start_002/Dave/Generated/GLOBAL_SCU_XMC4\global_scu_xmc4.h ****  **************************************************************************************************
  12:C:/Workspaces/DAVE-4.4.2-64Bit/fh-kaernten/DAVE_M2M_1/XMC4500_MTSR_Start_002/Dave/Generated/GLOBAL_SCU_XMC4\global_scu_xmc4.h ****  * GLOBAL_SCU_XMC4 v4.1.2 - Registers the callback for SCU Interrupt
  13:C:/Workspaces/DAVE-4.4.2-64Bit/fh-kaernten/DAVE_M2M_1/XMC4500_MTSR_Start_002/Dave/Generated/GLOBAL_SCU_XMC4\global_scu_xmc4.h ****  *
  14:C:/Workspaces/DAVE-4.4.2-64Bit/fh-kaernten/DAVE_M2M_1/XMC4500_MTSR_Start_002/Dave/Generated/GLOBAL_SCU_XMC4\global_scu_xmc4.h ****  * Copyright (c) 2015, Infineon Technologies AG
  15:C:/Workspaces/DAVE-4.4.2-64Bit/fh-kaernten/DAVE_M2M_1/XMC4500_MTSR_Start_002/Dave/Generated/GLOBAL_SCU_XMC4\global_scu_xmc4.h ****  * All rights reserved.
  16:C:/Workspaces/DAVE-4.4.2-64Bit/fh-kaernten/DAVE_M2M_1/XMC4500_MTSR_Start_002/Dave/Generated/GLOBAL_SCU_XMC4\global_scu_xmc4.h ****  *
  17:C:/Workspaces/DAVE-4.4.2-64Bit/fh-kaernten/DAVE_M2M_1/XMC4500_MTSR_Start_002/Dave/Generated/GLOBAL_SCU_XMC4\global_scu_xmc4.h ****  * Redistribution and use in source and binary forms, with or without modification,are permitted pr
  18:C:/Workspaces/DAVE-4.4.2-64Bit/fh-kaernten/DAVE_M2M_1/XMC4500_MTSR_Start_002/Dave/Generated/GLOBAL_SCU_XMC4\global_scu_xmc4.h ****  * following conditions are met:
  19:C:/Workspaces/DAVE-4.4.2-64Bit/fh-kaernten/DAVE_M2M_1/XMC4500_MTSR_Start_002/Dave/Generated/GLOBAL_SCU_XMC4\global_scu_xmc4.h ****  *
  20:C:/Workspaces/DAVE-4.4.2-64Bit/fh-kaernten/DAVE_M2M_1/XMC4500_MTSR_Start_002/Dave/Generated/GLOBAL_SCU_XMC4\global_scu_xmc4.h ****  *   Redistributions of source code must retain the above copyright notice, this list of conditions
  21:C:/Workspaces/DAVE-4.4.2-64Bit/fh-kaernten/DAVE_M2M_1/XMC4500_MTSR_Start_002/Dave/Generated/GLOBAL_SCU_XMC4\global_scu_xmc4.h ****  *   disclaimer.
  22:C:/Workspaces/DAVE-4.4.2-64Bit/fh-kaernten/DAVE_M2M_1/XMC4500_MTSR_Start_002/Dave/Generated/GLOBAL_SCU_XMC4\global_scu_xmc4.h ****  *
  23:C:/Workspaces/DAVE-4.4.2-64Bit/fh-kaernten/DAVE_M2M_1/XMC4500_MTSR_Start_002/Dave/Generated/GLOBAL_SCU_XMC4\global_scu_xmc4.h ****  *   Redistributions in binary form must reproduce the above copyright notice, this list of conditi
  24:C:/Workspaces/DAVE-4.4.2-64Bit/fh-kaernten/DAVE_M2M_1/XMC4500_MTSR_Start_002/Dave/Generated/GLOBAL_SCU_XMC4\global_scu_xmc4.h ****  *   following disclaimer in the documentation and/or other materials provided with the distributio
  25:C:/Workspaces/DAVE-4.4.2-64Bit/fh-kaernten/DAVE_M2M_1/XMC4500_MTSR_Start_002/Dave/Generated/GLOBAL_SCU_XMC4\global_scu_xmc4.h ****  *
  26:C:/Workspaces/DAVE-4.4.2-64Bit/fh-kaernten/DAVE_M2M_1/XMC4500_MTSR_Start_002/Dave/Generated/GLOBAL_SCU_XMC4\global_scu_xmc4.h ****  *   Neither the name of the copyright holders nor the names of its contributors may be used to end
  27:C:/Workspaces/DAVE-4.4.2-64Bit/fh-kaernten/DAVE_M2M_1/XMC4500_MTSR_Start_002/Dave/Generated/GLOBAL_SCU_XMC4\global_scu_xmc4.h ****  *   products derived from this software without specific prior written permission.
  28:C:/Workspaces/DAVE-4.4.2-64Bit/fh-kaernten/DAVE_M2M_1/XMC4500_MTSR_Start_002/Dave/Generated/GLOBAL_SCU_XMC4\global_scu_xmc4.h ****  *
  29:C:/Workspaces/DAVE-4.4.2-64Bit/fh-kaernten/DAVE_M2M_1/XMC4500_MTSR_Start_002/Dave/Generated/GLOBAL_SCU_XMC4\global_scu_xmc4.h ****  * THIS SOFTWARE IS PROVIDED BY THE COPYRIGHT HOLDERS AND CONTRIBUTORS "AS IS" AND ANY EXPRESS OR I
  30:C:/Workspaces/DAVE-4.4.2-64Bit/fh-kaernten/DAVE_M2M_1/XMC4500_MTSR_Start_002/Dave/Generated/GLOBAL_SCU_XMC4\global_scu_xmc4.h ****  * INCLUDING, BUT NOT LIMITED TO, THE IMPLIED WARRANTIES OF MERCHANTABILITY AND FITNESS FOR A PARTI
  31:C:/Workspaces/DAVE-4.4.2-64Bit/fh-kaernten/DAVE_M2M_1/XMC4500_MTSR_Start_002/Dave/Generated/GLOBAL_SCU_XMC4\global_scu_xmc4.h ****  * DISCLAIMED. IN NO EVENT SHALL THE COPYRIGHT HOLDER OR CONTRIBUTORS BE LIABLE  FOR ANY DIRECT, IN
  32:C:/Workspaces/DAVE-4.4.2-64Bit/fh-kaernten/DAVE_M2M_1/XMC4500_MTSR_Start_002/Dave/Generated/GLOBAL_SCU_XMC4\global_scu_xmc4.h ****  * SPECIAL, EXEMPLARY, OR CONSEQUENTIAL DAMAGES (INCLUDING, BUT NOT LIMITED TO, PROCUREMENT OF SUBS
  33:C:/Workspaces/DAVE-4.4.2-64Bit/fh-kaernten/DAVE_M2M_1/XMC4500_MTSR_Start_002/Dave/Generated/GLOBAL_SCU_XMC4\global_scu_xmc4.h ****  * SERVICES; LOSS OF USE, DATA, OR PROFITS; OR BUSINESS INTERRUPTION) HOWEVER CAUSED AND ON ANY THE
  34:C:/Workspaces/DAVE-4.4.2-64Bit/fh-kaernten/DAVE_M2M_1/XMC4500_MTSR_Start_002/Dave/Generated/GLOBAL_SCU_XMC4\global_scu_xmc4.h ****  * WHETHER IN CONTRACT, STRICT LIABILITY,OR TORT (INCLUDING NEGLIGENCE OR OTHERWISE) ARISING IN ANY
  35:C:/Workspaces/DAVE-4.4.2-64Bit/fh-kaernten/DAVE_M2M_1/XMC4500_MTSR_Start_002/Dave/Generated/GLOBAL_SCU_XMC4\global_scu_xmc4.h ****  * USE OF THIS SOFTWARE, EVEN IF ADVISED OF THE POSSIBILITY OF SUCH DAMAGE.
  36:C:/Workspaces/DAVE-4.4.2-64Bit/fh-kaernten/DAVE_M2M_1/XMC4500_MTSR_Start_002/Dave/Generated/GLOBAL_SCU_XMC4\global_scu_xmc4.h ****  *
  37:C:/Workspaces/DAVE-4.4.2-64Bit/fh-kaernten/DAVE_M2M_1/XMC4500_MTSR_Start_002/Dave/Generated/GLOBAL_SCU_XMC4\global_scu_xmc4.h ****  * To improve the quality of the software, users are encouraged to share modifications, enhancement
  38:C:/Workspaces/DAVE-4.4.2-64Bit/fh-kaernten/DAVE_M2M_1/XMC4500_MTSR_Start_002/Dave/Generated/GLOBAL_SCU_XMC4\global_scu_xmc4.h ****  * with Infineon Technologies AG (dave@infineon.com).
  39:C:/Workspaces/DAVE-4.4.2-64Bit/fh-kaernten/DAVE_M2M_1/XMC4500_MTSR_Start_002/Dave/Generated/GLOBAL_SCU_XMC4\global_scu_xmc4.h ****  **************************************************************************************************
  40:C:/Workspaces/DAVE-4.4.2-64Bit/fh-kaernten/DAVE_M2M_1/XMC4500_MTSR_Start_002/Dave/Generated/GLOBAL_SCU_XMC4\global_scu_xmc4.h ****  *
  41:C:/Workspaces/DAVE-4.4.2-64Bit/fh-kaernten/DAVE_M2M_1/XMC4500_MTSR_Start_002/Dave/Generated/GLOBAL_SCU_XMC4\global_scu_xmc4.h ****  * Change History
  42:C:/Workspaces/DAVE-4.4.2-64Bit/fh-kaernten/DAVE_M2M_1/XMC4500_MTSR_Start_002/Dave/Generated/GLOBAL_SCU_XMC4\global_scu_xmc4.h ****  * --------------
  43:C:/Workspaces/DAVE-4.4.2-64Bit/fh-kaernten/DAVE_M2M_1/XMC4500_MTSR_Start_002/Dave/Generated/GLOBAL_SCU_XMC4\global_scu_xmc4.h ****  *
  44:C:/Workspaces/DAVE-4.4.2-64Bit/fh-kaernten/DAVE_M2M_1/XMC4500_MTSR_Start_002/Dave/Generated/GLOBAL_SCU_XMC4\global_scu_xmc4.h ****  * 2015-02-16:
  45:C:/Workspaces/DAVE-4.4.2-64Bit/fh-kaernten/DAVE_M2M_1/XMC4500_MTSR_Start_002/Dave/Generated/GLOBAL_SCU_XMC4\global_scu_xmc4.h ****  *     - Initial version<br>
  46:C:/Workspaces/DAVE-4.4.2-64Bit/fh-kaernten/DAVE_M2M_1/XMC4500_MTSR_Start_002/Dave/Generated/GLOBAL_SCU_XMC4\global_scu_xmc4.h ****  *
  47:C:/Workspaces/DAVE-4.4.2-64Bit/fh-kaernten/DAVE_M2M_1/XMC4500_MTSR_Start_002/Dave/Generated/GLOBAL_SCU_XMC4\global_scu_xmc4.h ****  * 2015-06-26:
  48:C:/Workspaces/DAVE-4.4.2-64Bit/fh-kaernten/DAVE_M2M_1/XMC4500_MTSR_Start_002/Dave/Generated/GLOBAL_SCU_XMC4\global_scu_xmc4.h ****  *     - Added new static inline APIs
  49:C:/Workspaces/DAVE-4.4.2-64Bit/fh-kaernten/DAVE_M2M_1/XMC4500_MTSR_Start_002/Dave/Generated/GLOBAL_SCU_XMC4\global_scu_xmc4.h ****  *        GLOBAL_SCU_XMC4_EnableIRQ,GLOBAL_SCU_XMC4_DisableIRQ
  50:C:/Workspaces/DAVE-4.4.2-64Bit/fh-kaernten/DAVE_M2M_1/XMC4500_MTSR_Start_002/Dave/Generated/GLOBAL_SCU_XMC4\global_scu_xmc4.h ****  *        GLOBAL_SCU_XMC4_EnableEvent,GLOBAL_SCU_XMC4_DisableEvent
  51:C:/Workspaces/DAVE-4.4.2-64Bit/fh-kaernten/DAVE_M2M_1/XMC4500_MTSR_Start_002/Dave/Generated/GLOBAL_SCU_XMC4\global_scu_xmc4.h ****  *     - Removed GLOBAL_SCU_XMC4_INTERRUPT_EVENT enum
  52:C:/Workspaces/DAVE-4.4.2-64Bit/fh-kaernten/DAVE_M2M_1/XMC4500_MTSR_Start_002/Dave/Generated/GLOBAL_SCU_XMC4\global_scu_xmc4.h ****  *     - Equivalent macros are defined
  53:C:/Workspaces/DAVE-4.4.2-64Bit/fh-kaernten/DAVE_M2M_1/XMC4500_MTSR_Start_002/Dave/Generated/GLOBAL_SCU_XMC4\global_scu_xmc4.h ****  * @endcond
  54:C:/Workspaces/DAVE-4.4.2-64Bit/fh-kaernten/DAVE_M2M_1/XMC4500_MTSR_Start_002/Dave/Generated/GLOBAL_SCU_XMC4\global_scu_xmc4.h ****  *
  55:C:/Workspaces/DAVE-4.4.2-64Bit/fh-kaernten/DAVE_M2M_1/XMC4500_MTSR_Start_002/Dave/Generated/GLOBAL_SCU_XMC4\global_scu_xmc4.h ****  */
  56:C:/Workspaces/DAVE-4.4.2-64Bit/fh-kaernten/DAVE_M2M_1/XMC4500_MTSR_Start_002/Dave/Generated/GLOBAL_SCU_XMC4\global_scu_xmc4.h **** 
  57:C:/Workspaces/DAVE-4.4.2-64Bit/fh-kaernten/DAVE_M2M_1/XMC4500_MTSR_Start_002/Dave/Generated/GLOBAL_SCU_XMC4\global_scu_xmc4.h **** #ifndef GLOBAL_SCU_XMC4_H
  58:C:/Workspaces/DAVE-4.4.2-64Bit/fh-kaernten/DAVE_M2M_1/XMC4500_MTSR_Start_002/Dave/Generated/GLOBAL_SCU_XMC4\global_scu_xmc4.h **** #define GLOBAL_SCU_XMC4_H
  59:C:/Workspaces/DAVE-4.4.2-64Bit/fh-kaernten/DAVE_M2M_1/XMC4500_MTSR_Start_002/Dave/Generated/GLOBAL_SCU_XMC4\global_scu_xmc4.h **** 
  60:C:/Workspaces/DAVE-4.4.2-64Bit/fh-kaernten/DAVE_M2M_1/XMC4500_MTSR_Start_002/Dave/Generated/GLOBAL_SCU_XMC4\global_scu_xmc4.h **** /**************************************************************************************************
  61:C:/Workspaces/DAVE-4.4.2-64Bit/fh-kaernten/DAVE_M2M_1/XMC4500_MTSR_Start_002/Dave/Generated/GLOBAL_SCU_XMC4\global_scu_xmc4.h ****  * HEADER FILES
  62:C:/Workspaces/DAVE-4.4.2-64Bit/fh-kaernten/DAVE_M2M_1/XMC4500_MTSR_Start_002/Dave/Generated/GLOBAL_SCU_XMC4\global_scu_xmc4.h ****  **************************************************************************************************
  63:C:/Workspaces/DAVE-4.4.2-64Bit/fh-kaernten/DAVE_M2M_1/XMC4500_MTSR_Start_002/Dave/Generated/GLOBAL_SCU_XMC4\global_scu_xmc4.h **** #include <xmc_scu.h>
  64:C:/Workspaces/DAVE-4.4.2-64Bit/fh-kaernten/DAVE_M2M_1/XMC4500_MTSR_Start_002/Dave/Generated/GLOBAL_SCU_XMC4\global_scu_xmc4.h **** #include <DAVE_Common.h>
  65:C:/Workspaces/DAVE-4.4.2-64Bit/fh-kaernten/DAVE_M2M_1/XMC4500_MTSR_Start_002/Dave/Generated/GLOBAL_SCU_XMC4\global_scu_xmc4.h **** #include "CPU_CTRL_XMC4\cpu_ctrl_xmc4.h"
  66:C:/Workspaces/DAVE-4.4.2-64Bit/fh-kaernten/DAVE_M2M_1/XMC4500_MTSR_Start_002/Dave/Generated/GLOBAL_SCU_XMC4\global_scu_xmc4.h **** 
  67:C:/Workspaces/DAVE-4.4.2-64Bit/fh-kaernten/DAVE_M2M_1/XMC4500_MTSR_Start_002/Dave/Generated/GLOBAL_SCU_XMC4\global_scu_xmc4.h **** #include "global_scu_xmc4_conf.h"
  68:C:/Workspaces/DAVE-4.4.2-64Bit/fh-kaernten/DAVE_M2M_1/XMC4500_MTSR_Start_002/Dave/Generated/GLOBAL_SCU_XMC4\global_scu_xmc4.h **** 
  69:C:/Workspaces/DAVE-4.4.2-64Bit/fh-kaernten/DAVE_M2M_1/XMC4500_MTSR_Start_002/Dave/Generated/GLOBAL_SCU_XMC4\global_scu_xmc4.h **** /**
  70:C:/Workspaces/DAVE-4.4.2-64Bit/fh-kaernten/DAVE_M2M_1/XMC4500_MTSR_Start_002/Dave/Generated/GLOBAL_SCU_XMC4\global_scu_xmc4.h ****  * @addtogroup GLOBAL_SCU_XMC4
  71:C:/Workspaces/DAVE-4.4.2-64Bit/fh-kaernten/DAVE_M2M_1/XMC4500_MTSR_Start_002/Dave/Generated/GLOBAL_SCU_XMC4\global_scu_xmc4.h ****  * @{
  72:C:/Workspaces/DAVE-4.4.2-64Bit/fh-kaernten/DAVE_M2M_1/XMC4500_MTSR_Start_002/Dave/Generated/GLOBAL_SCU_XMC4\global_scu_xmc4.h ****  */
  73:C:/Workspaces/DAVE-4.4.2-64Bit/fh-kaernten/DAVE_M2M_1/XMC4500_MTSR_Start_002/Dave/Generated/GLOBAL_SCU_XMC4\global_scu_xmc4.h **** 
  74:C:/Workspaces/DAVE-4.4.2-64Bit/fh-kaernten/DAVE_M2M_1/XMC4500_MTSR_Start_002/Dave/Generated/GLOBAL_SCU_XMC4\global_scu_xmc4.h **** /**************************************************************************************************
  75:C:/Workspaces/DAVE-4.4.2-64Bit/fh-kaernten/DAVE_M2M_1/XMC4500_MTSR_Start_002/Dave/Generated/GLOBAL_SCU_XMC4\global_scu_xmc4.h ****  * MACROS
  76:C:/Workspaces/DAVE-4.4.2-64Bit/fh-kaernten/DAVE_M2M_1/XMC4500_MTSR_Start_002/Dave/Generated/GLOBAL_SCU_XMC4\global_scu_xmc4.h ****  **************************************************************************************************
  77:C:/Workspaces/DAVE-4.4.2-64Bit/fh-kaernten/DAVE_M2M_1/XMC4500_MTSR_Start_002/Dave/Generated/GLOBAL_SCU_XMC4\global_scu_xmc4.h **** #define GLOBAL_SCU_XMC4_EVENT_WDT_WARNING        XMC_SCU_INTERRUPT_EVENT_WDT_WARN      /**< Watchdo
  78:C:/Workspaces/DAVE-4.4.2-64Bit/fh-kaernten/DAVE_M2M_1/XMC4500_MTSR_Start_002/Dave/Generated/GLOBAL_SCU_XMC4\global_scu_xmc4.h **** #define GLOBAL_SCU_XMC4_EVENT_RTC_PERIODIC       XMC_SCU_INTERRUPT_EVENT_RTC_PERIODIC  /**< RTC per
  79:C:/Workspaces/DAVE-4.4.2-64Bit/fh-kaernten/DAVE_M2M_1/XMC4500_MTSR_Start_002/Dave/Generated/GLOBAL_SCU_XMC4\global_scu_xmc4.h **** #define GLOBAL_SCU_XMC4_EVENT_RTC_ALARM          XMC_SCU_INTERRUPT_EVENT_RTC_ALARM     /**< RTC ala
  80:C:/Workspaces/DAVE-4.4.2-64Bit/fh-kaernten/DAVE_M2M_1/XMC4500_MTSR_Start_002/Dave/Generated/GLOBAL_SCU_XMC4\global_scu_xmc4.h **** #define GLOBAL_SCU_XMC4_EVENT_DLR_OVERRUN        XMC_SCU_INTERRUPT_EVENT_DLR_OVERRUN   /**< DLR ove
  81:C:/Workspaces/DAVE-4.4.2-64Bit/fh-kaernten/DAVE_M2M_1/XMC4500_MTSR_Start_002/Dave/Generated/GLOBAL_SCU_XMC4\global_scu_xmc4.h **** #if defined(SCU_INTERRUPT_SRSTAT_LPACCR_Msk)
  82:C:/Workspaces/DAVE-4.4.2-64Bit/fh-kaernten/DAVE_M2M_1/XMC4500_MTSR_Start_002/Dave/Generated/GLOBAL_SCU_XMC4\global_scu_xmc4.h **** #define GLOBAL_SCU_XMC4_EVENT_LPACCR_UPDATED     XMC_SCU_INTERRUPT_EVENT_LPACCR_UPDATED   /**< LPAC
  83:C:/Workspaces/DAVE-4.4.2-64Bit/fh-kaernten/DAVE_M2M_1/XMC4500_MTSR_Start_002/Dave/Generated/GLOBAL_SCU_XMC4\global_scu_xmc4.h **** #endif
  84:C:/Workspaces/DAVE-4.4.2-64Bit/fh-kaernten/DAVE_M2M_1/XMC4500_MTSR_Start_002/Dave/Generated/GLOBAL_SCU_XMC4\global_scu_xmc4.h **** #if defined(SCU_INTERRUPT_SRSTAT_LPACTH0_Msk)
  85:C:/Workspaces/DAVE-4.4.2-64Bit/fh-kaernten/DAVE_M2M_1/XMC4500_MTSR_Start_002/Dave/Generated/GLOBAL_SCU_XMC4\global_scu_xmc4.h **** #define GLOBAL_SCU_XMC4_EVENT_LPACTH0_UPDATED    XMC_SCU_INTERRUPT_EVENT_LPACTH0_UPDATED  /**< LPAC
  86:C:/Workspaces/DAVE-4.4.2-64Bit/fh-kaernten/DAVE_M2M_1/XMC4500_MTSR_Start_002/Dave/Generated/GLOBAL_SCU_XMC4\global_scu_xmc4.h **** #endif
  87:C:/Workspaces/DAVE-4.4.2-64Bit/fh-kaernten/DAVE_M2M_1/XMC4500_MTSR_Start_002/Dave/Generated/GLOBAL_SCU_XMC4\global_scu_xmc4.h **** #if defined(SCU_INTERRUPT_SRSTAT_LPACTH1_Msk)
  88:C:/Workspaces/DAVE-4.4.2-64Bit/fh-kaernten/DAVE_M2M_1/XMC4500_MTSR_Start_002/Dave/Generated/GLOBAL_SCU_XMC4\global_scu_xmc4.h **** #define GLOBAL_SCU_XMC4_EVENT_LPACTH1_UPDATED    XMC_SCU_INTERRUPT_EVENT_LPACTH1_UPDATED  /**< LPAC
  89:C:/Workspaces/DAVE-4.4.2-64Bit/fh-kaernten/DAVE_M2M_1/XMC4500_MTSR_Start_002/Dave/Generated/GLOBAL_SCU_XMC4\global_scu_xmc4.h **** #endif
  90:C:/Workspaces/DAVE-4.4.2-64Bit/fh-kaernten/DAVE_M2M_1/XMC4500_MTSR_Start_002/Dave/Generated/GLOBAL_SCU_XMC4\global_scu_xmc4.h **** #if defined(SCU_INTERRUPT_SRSTAT_LPACST_Msk)
  91:C:/Workspaces/DAVE-4.4.2-64Bit/fh-kaernten/DAVE_M2M_1/XMC4500_MTSR_Start_002/Dave/Generated/GLOBAL_SCU_XMC4\global_scu_xmc4.h **** #define GLOBAL_SCU_XMC4_EVENT_LPACST_UPDATED     XMC_SCU_INTERRUPT_EVENT_LPACST_UPDATED   /**< LPAC
  92:C:/Workspaces/DAVE-4.4.2-64Bit/fh-kaernten/DAVE_M2M_1/XMC4500_MTSR_Start_002/Dave/Generated/GLOBAL_SCU_XMC4\global_scu_xmc4.h **** #endif
  93:C:/Workspaces/DAVE-4.4.2-64Bit/fh-kaernten/DAVE_M2M_1/XMC4500_MTSR_Start_002/Dave/Generated/GLOBAL_SCU_XMC4\global_scu_xmc4.h **** #if defined(SCU_INTERRUPT_SRSTAT_LPACCLR_Msk)
  94:C:/Workspaces/DAVE-4.4.2-64Bit/fh-kaernten/DAVE_M2M_1/XMC4500_MTSR_Start_002/Dave/Generated/GLOBAL_SCU_XMC4\global_scu_xmc4.h **** #define GLOBAL_SCU_XMC4_EVENT_LPACCLR_UPDATED    XMC_SCU_INTERRUPT_EVENT_LPACCLR_UPDATED /**< LPAC 
  95:C:/Workspaces/DAVE-4.4.2-64Bit/fh-kaernten/DAVE_M2M_1/XMC4500_MTSR_Start_002/Dave/Generated/GLOBAL_SCU_XMC4\global_scu_xmc4.h **** #endif
  96:C:/Workspaces/DAVE-4.4.2-64Bit/fh-kaernten/DAVE_M2M_1/XMC4500_MTSR_Start_002/Dave/Generated/GLOBAL_SCU_XMC4\global_scu_xmc4.h **** #if defined(SCU_INTERRUPT_SRSTAT_LPACSET_Msk)
  97:C:/Workspaces/DAVE-4.4.2-64Bit/fh-kaernten/DAVE_M2M_1/XMC4500_MTSR_Start_002/Dave/Generated/GLOBAL_SCU_XMC4\global_scu_xmc4.h **** #define GLOBAL_SCU_XMC4_EVENT_LPACSET_UPDATED    XMC_SCU_INTERRUPT_EVENT_LPACSET_UPDATED  /**< LPAC
  98:C:/Workspaces/DAVE-4.4.2-64Bit/fh-kaernten/DAVE_M2M_1/XMC4500_MTSR_Start_002/Dave/Generated/GLOBAL_SCU_XMC4\global_scu_xmc4.h **** #endif
  99:C:/Workspaces/DAVE-4.4.2-64Bit/fh-kaernten/DAVE_M2M_1/XMC4500_MTSR_Start_002/Dave/Generated/GLOBAL_SCU_XMC4\global_scu_xmc4.h **** #if defined(SCU_INTERRUPT_SRSTAT_HINTST_Msk)
 100:C:/Workspaces/DAVE-4.4.2-64Bit/fh-kaernten/DAVE_M2M_1/XMC4500_MTSR_Start_002/Dave/Generated/GLOBAL_SCU_XMC4\global_scu_xmc4.h **** #define GLOBAL_SCU_XMC4_EVENT_HINTST_UPDATED     XMC_SCU_INTERRUPT_EVENT_HINTST_UPDATED   /**< HIB 
 101:C:/Workspaces/DAVE-4.4.2-64Bit/fh-kaernten/DAVE_M2M_1/XMC4500_MTSR_Start_002/Dave/Generated/GLOBAL_SCU_XMC4\global_scu_xmc4.h **** #endif
 102:C:/Workspaces/DAVE-4.4.2-64Bit/fh-kaernten/DAVE_M2M_1/XMC4500_MTSR_Start_002/Dave/Generated/GLOBAL_SCU_XMC4\global_scu_xmc4.h **** #if defined(SCU_INTERRUPT_SRSTAT_HINTCLR_Msk)
 103:C:/Workspaces/DAVE-4.4.2-64Bit/fh-kaernten/DAVE_M2M_1/XMC4500_MTSR_Start_002/Dave/Generated/GLOBAL_SCU_XMC4\global_scu_xmc4.h **** #define GLOBAL_SCU_XMC4_EVENT_HINTCLR_UPDATED    XMC_SCU_INTERRUPT_EVENT_HINTCLR_UPDATED  /**< HIB 
 104:C:/Workspaces/DAVE-4.4.2-64Bit/fh-kaernten/DAVE_M2M_1/XMC4500_MTSR_Start_002/Dave/Generated/GLOBAL_SCU_XMC4\global_scu_xmc4.h **** #endif
 105:C:/Workspaces/DAVE-4.4.2-64Bit/fh-kaernten/DAVE_M2M_1/XMC4500_MTSR_Start_002/Dave/Generated/GLOBAL_SCU_XMC4\global_scu_xmc4.h **** #if defined(SCU_INTERRUPT_SRSTAT_HINTSET_Msk)
 106:C:/Workspaces/DAVE-4.4.2-64Bit/fh-kaernten/DAVE_M2M_1/XMC4500_MTSR_Start_002/Dave/Generated/GLOBAL_SCU_XMC4\global_scu_xmc4.h **** #define GLOBAL_SCU_XMC4_EVENT_HINTSET_UPDATED    XMC_SCU_INTERRUPT_EVENT_HINTSET_UPDATED /**< HIB H
 107:C:/Workspaces/DAVE-4.4.2-64Bit/fh-kaernten/DAVE_M2M_1/XMC4500_MTSR_Start_002/Dave/Generated/GLOBAL_SCU_XMC4\global_scu_xmc4.h **** #endif
 108:C:/Workspaces/DAVE-4.4.2-64Bit/fh-kaernten/DAVE_M2M_1/XMC4500_MTSR_Start_002/Dave/Generated/GLOBAL_SCU_XMC4\global_scu_xmc4.h **** #define GLOBAL_SCU_XMC4_EVENT_HDSTAT_UPDATED     XMC_SCU_INTERRUPT_EVENT_HDSTAT_UPDATED /**< HIB HD
 109:C:/Workspaces/DAVE-4.4.2-64Bit/fh-kaernten/DAVE_M2M_1/XMC4500_MTSR_Start_002/Dave/Generated/GLOBAL_SCU_XMC4\global_scu_xmc4.h **** #define GLOBAL_SCU_XMC4_EVENT_HDCLR_UPDATED      XMC_SCU_INTERRUPT_EVENT_HDCLR_UPDATED /**< HIB HDC
 110:C:/Workspaces/DAVE-4.4.2-64Bit/fh-kaernten/DAVE_M2M_1/XMC4500_MTSR_Start_002/Dave/Generated/GLOBAL_SCU_XMC4\global_scu_xmc4.h **** #define GLOBAL_SCU_XMC4_EVENT_HDSET_UPDATED      XMC_SCU_INTERRUPT_EVENT_HDSET_UPDATED /**< HIB HDS
 111:C:/Workspaces/DAVE-4.4.2-64Bit/fh-kaernten/DAVE_M2M_1/XMC4500_MTSR_Start_002/Dave/Generated/GLOBAL_SCU_XMC4\global_scu_xmc4.h **** #define GLOBAL_SCU_XMC4_EVENT_HDCR_UPDATED       XMC_SCU_INTERRUPT_EVENT_HDCR_UPDATED   /**< HIB HD
 112:C:/Workspaces/DAVE-4.4.2-64Bit/fh-kaernten/DAVE_M2M_1/XMC4500_MTSR_Start_002/Dave/Generated/GLOBAL_SCU_XMC4\global_scu_xmc4.h **** #define GLOBAL_SCU_XMC4_EVENT_OSCSICTRL_UPDATED  XMC_SCU_INTERRUPT_EVENT_OSCSICTRL_UPDATED /**< HIB
 113:C:/Workspaces/DAVE-4.4.2-64Bit/fh-kaernten/DAVE_M2M_1/XMC4500_MTSR_Start_002/Dave/Generated/GLOBAL_SCU_XMC4\global_scu_xmc4.h **** #define GLOBAL_SCU_XMC4_EVENT_OSCULSTAT_UPDATED  XMC_SCU_INTERRUPT_EVENT_OSCULSTAT_UPDATED /**< HIB
 114:C:/Workspaces/DAVE-4.4.2-64Bit/fh-kaernten/DAVE_M2M_1/XMC4500_MTSR_Start_002/Dave/Generated/GLOBAL_SCU_XMC4\global_scu_xmc4.h **** #define GLOBAL_SCU_XMC4_EVENT_OSCULCTRL_UPDATED  XMC_SCU_INTERRUPT_EVENT_OSCULCTRL_UPDATED /**< HIB
 115:C:/Workspaces/DAVE-4.4.2-64Bit/fh-kaernten/DAVE_M2M_1/XMC4500_MTSR_Start_002/Dave/Generated/GLOBAL_SCU_XMC4\global_scu_xmc4.h **** #define GLOBAL_SCU_XMC4_EVENT_RTCCTR_UPDATED     XMC_SCU_INTERRUPT_EVENT_RTCCTR_UPDATED /**< HIB RT
 116:C:/Workspaces/DAVE-4.4.2-64Bit/fh-kaernten/DAVE_M2M_1/XMC4500_MTSR_Start_002/Dave/Generated/GLOBAL_SCU_XMC4\global_scu_xmc4.h **** #define GLOBAL_SCU_XMC4_EVENT_RTCATIM0_UPDATED   XMC_SCU_INTERRUPT_EVENT_RTCATIM0_UPDATED /**< HIB 
 117:C:/Workspaces/DAVE-4.4.2-64Bit/fh-kaernten/DAVE_M2M_1/XMC4500_MTSR_Start_002/Dave/Generated/GLOBAL_SCU_XMC4\global_scu_xmc4.h **** #define GLOBAL_SCU_XMC4_EVENT_RTCATIM1_UPDATED   XMC_SCU_INTERRUPT_EVENT_RTCATIM1_UPDATED /**< HIB 
 118:C:/Workspaces/DAVE-4.4.2-64Bit/fh-kaernten/DAVE_M2M_1/XMC4500_MTSR_Start_002/Dave/Generated/GLOBAL_SCU_XMC4\global_scu_xmc4.h **** #define GLOBAL_SCU_XMC4_EVENT_RTCTIM0_UPDATED    XMC_SCU_INTERRUPT_EVENT_RTCTIM0_UPDATED /**< HIB R
 119:C:/Workspaces/DAVE-4.4.2-64Bit/fh-kaernten/DAVE_M2M_1/XMC4500_MTSR_Start_002/Dave/Generated/GLOBAL_SCU_XMC4\global_scu_xmc4.h **** #define GLOBAL_SCU_XMC4_EVENT_RTCTIM1_UPDATED    XMC_SCU_INTERRUPT_EVENT_RTCTIM1_UPDATED /**< HIB R
 120:C:/Workspaces/DAVE-4.4.2-64Bit/fh-kaernten/DAVE_M2M_1/XMC4500_MTSR_Start_002/Dave/Generated/GLOBAL_SCU_XMC4\global_scu_xmc4.h **** #define GLOBAL_SCU_XMC4_EVENT_RMX_UPDATED        XMC_SCU_INTERRUPT_EVENT_RMX_UPDATED  /**< HIB RMX 
 121:C:/Workspaces/DAVE-4.4.2-64Bit/fh-kaernten/DAVE_M2M_1/XMC4500_MTSR_Start_002/Dave/Generated/GLOBAL_SCU_XMC4\global_scu_xmc4.h **** /**************************************************************************************************
 122:C:/Workspaces/DAVE-4.4.2-64Bit/fh-kaernten/DAVE_M2M_1/XMC4500_MTSR_Start_002/Dave/Generated/GLOBAL_SCU_XMC4\global_scu_xmc4.h ****  * ENUMS
 123:C:/Workspaces/DAVE-4.4.2-64Bit/fh-kaernten/DAVE_M2M_1/XMC4500_MTSR_Start_002/Dave/Generated/GLOBAL_SCU_XMC4\global_scu_xmc4.h ****  **************************************************************************************************
 124:C:/Workspaces/DAVE-4.4.2-64Bit/fh-kaernten/DAVE_M2M_1/XMC4500_MTSR_Start_002/Dave/Generated/GLOBAL_SCU_XMC4\global_scu_xmc4.h **** /**
 125:C:/Workspaces/DAVE-4.4.2-64Bit/fh-kaernten/DAVE_M2M_1/XMC4500_MTSR_Start_002/Dave/Generated/GLOBAL_SCU_XMC4\global_scu_xmc4.h ****  * @ingroup GLOBAL_SCU_XMC4_enumerations
 126:C:/Workspaces/DAVE-4.4.2-64Bit/fh-kaernten/DAVE_M2M_1/XMC4500_MTSR_Start_002/Dave/Generated/GLOBAL_SCU_XMC4\global_scu_xmc4.h ****  * @{
 127:C:/Workspaces/DAVE-4.4.2-64Bit/fh-kaernten/DAVE_M2M_1/XMC4500_MTSR_Start_002/Dave/Generated/GLOBAL_SCU_XMC4\global_scu_xmc4.h ****  */
 128:C:/Workspaces/DAVE-4.4.2-64Bit/fh-kaernten/DAVE_M2M_1/XMC4500_MTSR_Start_002/Dave/Generated/GLOBAL_SCU_XMC4\global_scu_xmc4.h **** 
 129:C:/Workspaces/DAVE-4.4.2-64Bit/fh-kaernten/DAVE_M2M_1/XMC4500_MTSR_Start_002/Dave/Generated/GLOBAL_SCU_XMC4\global_scu_xmc4.h **** /**
 130:C:/Workspaces/DAVE-4.4.2-64Bit/fh-kaernten/DAVE_M2M_1/XMC4500_MTSR_Start_002/Dave/Generated/GLOBAL_SCU_XMC4\global_scu_xmc4.h ****  * APP status
 131:C:/Workspaces/DAVE-4.4.2-64Bit/fh-kaernten/DAVE_M2M_1/XMC4500_MTSR_Start_002/Dave/Generated/GLOBAL_SCU_XMC4\global_scu_xmc4.h ****  */
 132:C:/Workspaces/DAVE-4.4.2-64Bit/fh-kaernten/DAVE_M2M_1/XMC4500_MTSR_Start_002/Dave/Generated/GLOBAL_SCU_XMC4\global_scu_xmc4.h **** typedef enum GLOBAL_SCU_XMC4_STATUS
 133:C:/Workspaces/DAVE-4.4.2-64Bit/fh-kaernten/DAVE_M2M_1/XMC4500_MTSR_Start_002/Dave/Generated/GLOBAL_SCU_XMC4\global_scu_xmc4.h **** {
 134:C:/Workspaces/DAVE-4.4.2-64Bit/fh-kaernten/DAVE_M2M_1/XMC4500_MTSR_Start_002/Dave/Generated/GLOBAL_SCU_XMC4\global_scu_xmc4.h ****   GLOBAL_SCU_XMC4_STATUS_SUCCESS = 0U,  /**< Initialization status success */
 135:C:/Workspaces/DAVE-4.4.2-64Bit/fh-kaernten/DAVE_M2M_1/XMC4500_MTSR_Start_002/Dave/Generated/GLOBAL_SCU_XMC4\global_scu_xmc4.h ****   GLOBAL_SCU_XMC4_STATUS_FAILURE = 1U	/**< Initialization status failure */
 136:C:/Workspaces/DAVE-4.4.2-64Bit/fh-kaernten/DAVE_M2M_1/XMC4500_MTSR_Start_002/Dave/Generated/GLOBAL_SCU_XMC4\global_scu_xmc4.h **** } GLOBAL_SCU_XMC4_STATUS_t;
 137:C:/Workspaces/DAVE-4.4.2-64Bit/fh-kaernten/DAVE_M2M_1/XMC4500_MTSR_Start_002/Dave/Generated/GLOBAL_SCU_XMC4\global_scu_xmc4.h **** 
 138:C:/Workspaces/DAVE-4.4.2-64Bit/fh-kaernten/DAVE_M2M_1/XMC4500_MTSR_Start_002/Dave/Generated/GLOBAL_SCU_XMC4\global_scu_xmc4.h **** /**
 139:C:/Workspaces/DAVE-4.4.2-64Bit/fh-kaernten/DAVE_M2M_1/XMC4500_MTSR_Start_002/Dave/Generated/GLOBAL_SCU_XMC4\global_scu_xmc4.h ****  *@}
 140:C:/Workspaces/DAVE-4.4.2-64Bit/fh-kaernten/DAVE_M2M_1/XMC4500_MTSR_Start_002/Dave/Generated/GLOBAL_SCU_XMC4\global_scu_xmc4.h ****  */
 141:C:/Workspaces/DAVE-4.4.2-64Bit/fh-kaernten/DAVE_M2M_1/XMC4500_MTSR_Start_002/Dave/Generated/GLOBAL_SCU_XMC4\global_scu_xmc4.h **** 
 142:C:/Workspaces/DAVE-4.4.2-64Bit/fh-kaernten/DAVE_M2M_1/XMC4500_MTSR_Start_002/Dave/Generated/GLOBAL_SCU_XMC4\global_scu_xmc4.h **** /**
 143:C:/Workspaces/DAVE-4.4.2-64Bit/fh-kaernten/DAVE_M2M_1/XMC4500_MTSR_Start_002/Dave/Generated/GLOBAL_SCU_XMC4\global_scu_xmc4.h ****  * @ingroup GLOBAL_SCU_XMC4_datastructures
 144:C:/Workspaces/DAVE-4.4.2-64Bit/fh-kaernten/DAVE_M2M_1/XMC4500_MTSR_Start_002/Dave/Generated/GLOBAL_SCU_XMC4\global_scu_xmc4.h ****  * @{
 145:C:/Workspaces/DAVE-4.4.2-64Bit/fh-kaernten/DAVE_M2M_1/XMC4500_MTSR_Start_002/Dave/Generated/GLOBAL_SCU_XMC4\global_scu_xmc4.h ****  */
 146:C:/Workspaces/DAVE-4.4.2-64Bit/fh-kaernten/DAVE_M2M_1/XMC4500_MTSR_Start_002/Dave/Generated/GLOBAL_SCU_XMC4\global_scu_xmc4.h **** /**************************************************************************************************
 147:C:/Workspaces/DAVE-4.4.2-64Bit/fh-kaernten/DAVE_M2M_1/XMC4500_MTSR_Start_002/Dave/Generated/GLOBAL_SCU_XMC4\global_scu_xmc4.h **** * DATA STRUCTURES
 148:C:/Workspaces/DAVE-4.4.2-64Bit/fh-kaernten/DAVE_M2M_1/XMC4500_MTSR_Start_002/Dave/Generated/GLOBAL_SCU_XMC4\global_scu_xmc4.h **** ***************************************************************************************************
 149:C:/Workspaces/DAVE-4.4.2-64Bit/fh-kaernten/DAVE_M2M_1/XMC4500_MTSR_Start_002/Dave/Generated/GLOBAL_SCU_XMC4\global_scu_xmc4.h **** /**
 150:C:/Workspaces/DAVE-4.4.2-64Bit/fh-kaernten/DAVE_M2M_1/XMC4500_MTSR_Start_002/Dave/Generated/GLOBAL_SCU_XMC4\global_scu_xmc4.h ****  * Event handler type
 151:C:/Workspaces/DAVE-4.4.2-64Bit/fh-kaernten/DAVE_M2M_1/XMC4500_MTSR_Start_002/Dave/Generated/GLOBAL_SCU_XMC4\global_scu_xmc4.h ****  */
 152:C:/Workspaces/DAVE-4.4.2-64Bit/fh-kaernten/DAVE_M2M_1/XMC4500_MTSR_Start_002/Dave/Generated/GLOBAL_SCU_XMC4\global_scu_xmc4.h **** typedef XMC_SCU_INTERRUPT_EVENT_HANDLER_t GLOBAL_SCU_XMC4_EVENT_HANDLER_t;
 153:C:/Workspaces/DAVE-4.4.2-64Bit/fh-kaernten/DAVE_M2M_1/XMC4500_MTSR_Start_002/Dave/Generated/GLOBAL_SCU_XMC4\global_scu_xmc4.h **** 
 154:C:/Workspaces/DAVE-4.4.2-64Bit/fh-kaernten/DAVE_M2M_1/XMC4500_MTSR_Start_002/Dave/Generated/GLOBAL_SCU_XMC4\global_scu_xmc4.h **** /** Event type
 155:C:/Workspaces/DAVE-4.4.2-64Bit/fh-kaernten/DAVE_M2M_1/XMC4500_MTSR_Start_002/Dave/Generated/GLOBAL_SCU_XMC4\global_scu_xmc4.h ****  *
 156:C:/Workspaces/DAVE-4.4.2-64Bit/fh-kaernten/DAVE_M2M_1/XMC4500_MTSR_Start_002/Dave/Generated/GLOBAL_SCU_XMC4\global_scu_xmc4.h ****  */
 157:C:/Workspaces/DAVE-4.4.2-64Bit/fh-kaernten/DAVE_M2M_1/XMC4500_MTSR_Start_002/Dave/Generated/GLOBAL_SCU_XMC4\global_scu_xmc4.h **** typedef XMC_SCU_INTERRUPT_EVENT_t GLOBAL_SCU_XMC4_EVENT_t;
 158:C:/Workspaces/DAVE-4.4.2-64Bit/fh-kaernten/DAVE_M2M_1/XMC4500_MTSR_Start_002/Dave/Generated/GLOBAL_SCU_XMC4\global_scu_xmc4.h **** 
 159:C:/Workspaces/DAVE-4.4.2-64Bit/fh-kaernten/DAVE_M2M_1/XMC4500_MTSR_Start_002/Dave/Generated/GLOBAL_SCU_XMC4\global_scu_xmc4.h **** /**
 160:C:/Workspaces/DAVE-4.4.2-64Bit/fh-kaernten/DAVE_M2M_1/XMC4500_MTSR_Start_002/Dave/Generated/GLOBAL_SCU_XMC4\global_scu_xmc4.h ****  * Configuration parameters
 161:C:/Workspaces/DAVE-4.4.2-64Bit/fh-kaernten/DAVE_M2M_1/XMC4500_MTSR_Start_002/Dave/Generated/GLOBAL_SCU_XMC4\global_scu_xmc4.h ****  */
 162:C:/Workspaces/DAVE-4.4.2-64Bit/fh-kaernten/DAVE_M2M_1/XMC4500_MTSR_Start_002/Dave/Generated/GLOBAL_SCU_XMC4\global_scu_xmc4.h **** typedef struct GLOBAL_SCU_XMC4_CONFIG
 163:C:/Workspaces/DAVE-4.4.2-64Bit/fh-kaernten/DAVE_M2M_1/XMC4500_MTSR_Start_002/Dave/Generated/GLOBAL_SCU_XMC4\global_scu_xmc4.h **** {
 164:C:/Workspaces/DAVE-4.4.2-64Bit/fh-kaernten/DAVE_M2M_1/XMC4500_MTSR_Start_002/Dave/Generated/GLOBAL_SCU_XMC4\global_scu_xmc4.h ****   uint8_t priority;    /**<  Node Interrupt Priority    */    
 165:C:/Workspaces/DAVE-4.4.2-64Bit/fh-kaernten/DAVE_M2M_1/XMC4500_MTSR_Start_002/Dave/Generated/GLOBAL_SCU_XMC4\global_scu_xmc4.h ****   uint8_t subpriority; /**<  Node Interrupt Subpriority */
 166:C:/Workspaces/DAVE-4.4.2-64Bit/fh-kaernten/DAVE_M2M_1/XMC4500_MTSR_Start_002/Dave/Generated/GLOBAL_SCU_XMC4\global_scu_xmc4.h ****   bool enable_at_init; /**<  Interrupt enable for Node  */
 167:C:/Workspaces/DAVE-4.4.2-64Bit/fh-kaernten/DAVE_M2M_1/XMC4500_MTSR_Start_002/Dave/Generated/GLOBAL_SCU_XMC4\global_scu_xmc4.h **** } GLOBAL_SCU_XMC4_CONFIG_t;
 168:C:/Workspaces/DAVE-4.4.2-64Bit/fh-kaernten/DAVE_M2M_1/XMC4500_MTSR_Start_002/Dave/Generated/GLOBAL_SCU_XMC4\global_scu_xmc4.h **** 
 169:C:/Workspaces/DAVE-4.4.2-64Bit/fh-kaernten/DAVE_M2M_1/XMC4500_MTSR_Start_002/Dave/Generated/GLOBAL_SCU_XMC4\global_scu_xmc4.h **** /**
 170:C:/Workspaces/DAVE-4.4.2-64Bit/fh-kaernten/DAVE_M2M_1/XMC4500_MTSR_Start_002/Dave/Generated/GLOBAL_SCU_XMC4\global_scu_xmc4.h ****  * Runtime handler
 171:C:/Workspaces/DAVE-4.4.2-64Bit/fh-kaernten/DAVE_M2M_1/XMC4500_MTSR_Start_002/Dave/Generated/GLOBAL_SCU_XMC4\global_scu_xmc4.h ****  */
 172:C:/Workspaces/DAVE-4.4.2-64Bit/fh-kaernten/DAVE_M2M_1/XMC4500_MTSR_Start_002/Dave/Generated/GLOBAL_SCU_XMC4\global_scu_xmc4.h **** typedef struct GLOBAL_SCU_XMC4
 173:C:/Workspaces/DAVE-4.4.2-64Bit/fh-kaernten/DAVE_M2M_1/XMC4500_MTSR_Start_002/Dave/Generated/GLOBAL_SCU_XMC4\global_scu_xmc4.h **** {
 174:C:/Workspaces/DAVE-4.4.2-64Bit/fh-kaernten/DAVE_M2M_1/XMC4500_MTSR_Start_002/Dave/Generated/GLOBAL_SCU_XMC4\global_scu_xmc4.h ****   const GLOBAL_SCU_XMC4_CONFIG_t * config; /**< Instance configuration options */
 175:C:/Workspaces/DAVE-4.4.2-64Bit/fh-kaernten/DAVE_M2M_1/XMC4500_MTSR_Start_002/Dave/Generated/GLOBAL_SCU_XMC4\global_scu_xmc4.h ****   bool initialized;                        /**< Initialization status */
 176:C:/Workspaces/DAVE-4.4.2-64Bit/fh-kaernten/DAVE_M2M_1/XMC4500_MTSR_Start_002/Dave/Generated/GLOBAL_SCU_XMC4\global_scu_xmc4.h **** } GLOBAL_SCU_XMC4_t;
 177:C:/Workspaces/DAVE-4.4.2-64Bit/fh-kaernten/DAVE_M2M_1/XMC4500_MTSR_Start_002/Dave/Generated/GLOBAL_SCU_XMC4\global_scu_xmc4.h **** 
 178:C:/Workspaces/DAVE-4.4.2-64Bit/fh-kaernten/DAVE_M2M_1/XMC4500_MTSR_Start_002/Dave/Generated/GLOBAL_SCU_XMC4\global_scu_xmc4.h **** /**
 179:C:/Workspaces/DAVE-4.4.2-64Bit/fh-kaernten/DAVE_M2M_1/XMC4500_MTSR_Start_002/Dave/Generated/GLOBAL_SCU_XMC4\global_scu_xmc4.h ****  *@}
 180:C:/Workspaces/DAVE-4.4.2-64Bit/fh-kaernten/DAVE_M2M_1/XMC4500_MTSR_Start_002/Dave/Generated/GLOBAL_SCU_XMC4\global_scu_xmc4.h ****  */
 181:C:/Workspaces/DAVE-4.4.2-64Bit/fh-kaernten/DAVE_M2M_1/XMC4500_MTSR_Start_002/Dave/Generated/GLOBAL_SCU_XMC4\global_scu_xmc4.h **** 
 182:C:/Workspaces/DAVE-4.4.2-64Bit/fh-kaernten/DAVE_M2M_1/XMC4500_MTSR_Start_002/Dave/Generated/GLOBAL_SCU_XMC4\global_scu_xmc4.h **** /**
 183:C:/Workspaces/DAVE-4.4.2-64Bit/fh-kaernten/DAVE_M2M_1/XMC4500_MTSR_Start_002/Dave/Generated/GLOBAL_SCU_XMC4\global_scu_xmc4.h ****  * @ingroup GLOBAL_SCU_XMC4_apidoc
 184:C:/Workspaces/DAVE-4.4.2-64Bit/fh-kaernten/DAVE_M2M_1/XMC4500_MTSR_Start_002/Dave/Generated/GLOBAL_SCU_XMC4\global_scu_xmc4.h ****  * @{
 185:C:/Workspaces/DAVE-4.4.2-64Bit/fh-kaernten/DAVE_M2M_1/XMC4500_MTSR_Start_002/Dave/Generated/GLOBAL_SCU_XMC4\global_scu_xmc4.h ****  */
 186:C:/Workspaces/DAVE-4.4.2-64Bit/fh-kaernten/DAVE_M2M_1/XMC4500_MTSR_Start_002/Dave/Generated/GLOBAL_SCU_XMC4\global_scu_xmc4.h **** /**************************************************************************************************
 187:C:/Workspaces/DAVE-4.4.2-64Bit/fh-kaernten/DAVE_M2M_1/XMC4500_MTSR_Start_002/Dave/Generated/GLOBAL_SCU_XMC4\global_scu_xmc4.h ****  * API PROTOTYPES
 188:C:/Workspaces/DAVE-4.4.2-64Bit/fh-kaernten/DAVE_M2M_1/XMC4500_MTSR_Start_002/Dave/Generated/GLOBAL_SCU_XMC4\global_scu_xmc4.h **** ***************************************************************************************************
 189:C:/Workspaces/DAVE-4.4.2-64Bit/fh-kaernten/DAVE_M2M_1/XMC4500_MTSR_Start_002/Dave/Generated/GLOBAL_SCU_XMC4\global_scu_xmc4.h **** /**
 190:C:/Workspaces/DAVE-4.4.2-64Bit/fh-kaernten/DAVE_M2M_1/XMC4500_MTSR_Start_002/Dave/Generated/GLOBAL_SCU_XMC4\global_scu_xmc4.h ****  * @brief Get GLOBAL_SCU_XMC4 APP version
 191:C:/Workspaces/DAVE-4.4.2-64Bit/fh-kaernten/DAVE_M2M_1/XMC4500_MTSR_Start_002/Dave/Generated/GLOBAL_SCU_XMC4\global_scu_xmc4.h ****  * @return DAVE_APP_VERSION_t APP version details (major, minor and patch number)
 192:C:/Workspaces/DAVE-4.4.2-64Bit/fh-kaernten/DAVE_M2M_1/XMC4500_MTSR_Start_002/Dave/Generated/GLOBAL_SCU_XMC4\global_scu_xmc4.h ****  *
 193:C:/Workspaces/DAVE-4.4.2-64Bit/fh-kaernten/DAVE_M2M_1/XMC4500_MTSR_Start_002/Dave/Generated/GLOBAL_SCU_XMC4\global_scu_xmc4.h ****  * \par<b>Description: </b><br>
 194:C:/Workspaces/DAVE-4.4.2-64Bit/fh-kaernten/DAVE_M2M_1/XMC4500_MTSR_Start_002/Dave/Generated/GLOBAL_SCU_XMC4\global_scu_xmc4.h ****  * The function can be used to check application software compatibility with a
 195:C:/Workspaces/DAVE-4.4.2-64Bit/fh-kaernten/DAVE_M2M_1/XMC4500_MTSR_Start_002/Dave/Generated/GLOBAL_SCU_XMC4\global_scu_xmc4.h ****  * specific version of the APP.
 196:C:/Workspaces/DAVE-4.4.2-64Bit/fh-kaernten/DAVE_M2M_1/XMC4500_MTSR_Start_002/Dave/Generated/GLOBAL_SCU_XMC4\global_scu_xmc4.h ****  *
 197:C:/Workspaces/DAVE-4.4.2-64Bit/fh-kaernten/DAVE_M2M_1/XMC4500_MTSR_Start_002/Dave/Generated/GLOBAL_SCU_XMC4\global_scu_xmc4.h ****  * Example Usage:
 198:C:/Workspaces/DAVE-4.4.2-64Bit/fh-kaernten/DAVE_M2M_1/XMC4500_MTSR_Start_002/Dave/Generated/GLOBAL_SCU_XMC4\global_scu_xmc4.h ****  *
 199:C:/Workspaces/DAVE-4.4.2-64Bit/fh-kaernten/DAVE_M2M_1/XMC4500_MTSR_Start_002/Dave/Generated/GLOBAL_SCU_XMC4\global_scu_xmc4.h ****  * @code
 200:C:/Workspaces/DAVE-4.4.2-64Bit/fh-kaernten/DAVE_M2M_1/XMC4500_MTSR_Start_002/Dave/Generated/GLOBAL_SCU_XMC4\global_scu_xmc4.h ****  * #include <DAVE.h>
 201:C:/Workspaces/DAVE-4.4.2-64Bit/fh-kaernten/DAVE_M2M_1/XMC4500_MTSR_Start_002/Dave/Generated/GLOBAL_SCU_XMC4\global_scu_xmc4.h ****  *
 202:C:/Workspaces/DAVE-4.4.2-64Bit/fh-kaernten/DAVE_M2M_1/XMC4500_MTSR_Start_002/Dave/Generated/GLOBAL_SCU_XMC4\global_scu_xmc4.h ****  * int main(void)
 203:C:/Workspaces/DAVE-4.4.2-64Bit/fh-kaernten/DAVE_M2M_1/XMC4500_MTSR_Start_002/Dave/Generated/GLOBAL_SCU_XMC4\global_scu_xmc4.h ****  * {
 204:C:/Workspaces/DAVE-4.4.2-64Bit/fh-kaernten/DAVE_M2M_1/XMC4500_MTSR_Start_002/Dave/Generated/GLOBAL_SCU_XMC4\global_scu_xmc4.h ****  *   DAVE_APP_VERSION_t version;
 205:C:/Workspaces/DAVE-4.4.2-64Bit/fh-kaernten/DAVE_M2M_1/XMC4500_MTSR_Start_002/Dave/Generated/GLOBAL_SCU_XMC4\global_scu_xmc4.h ****  *
 206:C:/Workspaces/DAVE-4.4.2-64Bit/fh-kaernten/DAVE_M2M_1/XMC4500_MTSR_Start_002/Dave/Generated/GLOBAL_SCU_XMC4\global_scu_xmc4.h ****  *   // Initialize GLOBAL_SCU_XMC4 APP.
 207:C:/Workspaces/DAVE-4.4.2-64Bit/fh-kaernten/DAVE_M2M_1/XMC4500_MTSR_Start_002/Dave/Generated/GLOBAL_SCU_XMC4\global_scu_xmc4.h ****  *   DAVE_Init();
 208:C:/Workspaces/DAVE-4.4.2-64Bit/fh-kaernten/DAVE_M2M_1/XMC4500_MTSR_Start_002/Dave/Generated/GLOBAL_SCU_XMC4\global_scu_xmc4.h ****  *
 209:C:/Workspaces/DAVE-4.4.2-64Bit/fh-kaernten/DAVE_M2M_1/XMC4500_MTSR_Start_002/Dave/Generated/GLOBAL_SCU_XMC4\global_scu_xmc4.h ****  *   version = GLOBAL_SCU_XMC4_GetAppVersion();
 210:C:/Workspaces/DAVE-4.4.2-64Bit/fh-kaernten/DAVE_M2M_1/XMC4500_MTSR_Start_002/Dave/Generated/GLOBAL_SCU_XMC4\global_scu_xmc4.h ****  *   if (version.major != 4U)
 211:C:/Workspaces/DAVE-4.4.2-64Bit/fh-kaernten/DAVE_M2M_1/XMC4500_MTSR_Start_002/Dave/Generated/GLOBAL_SCU_XMC4\global_scu_xmc4.h ****  *   {
 212:C:/Workspaces/DAVE-4.4.2-64Bit/fh-kaernten/DAVE_M2M_1/XMC4500_MTSR_Start_002/Dave/Generated/GLOBAL_SCU_XMC4\global_scu_xmc4.h ****  *     // Probably, not the right version.
 213:C:/Workspaces/DAVE-4.4.2-64Bit/fh-kaernten/DAVE_M2M_1/XMC4500_MTSR_Start_002/Dave/Generated/GLOBAL_SCU_XMC4\global_scu_xmc4.h ****  *   }
 214:C:/Workspaces/DAVE-4.4.2-64Bit/fh-kaernten/DAVE_M2M_1/XMC4500_MTSR_Start_002/Dave/Generated/GLOBAL_SCU_XMC4\global_scu_xmc4.h ****  *
 215:C:/Workspaces/DAVE-4.4.2-64Bit/fh-kaernten/DAVE_M2M_1/XMC4500_MTSR_Start_002/Dave/Generated/GLOBAL_SCU_XMC4\global_scu_xmc4.h ****  *   // More code here
 216:C:/Workspaces/DAVE-4.4.2-64Bit/fh-kaernten/DAVE_M2M_1/XMC4500_MTSR_Start_002/Dave/Generated/GLOBAL_SCU_XMC4\global_scu_xmc4.h ****  *   while(1)
 217:C:/Workspaces/DAVE-4.4.2-64Bit/fh-kaernten/DAVE_M2M_1/XMC4500_MTSR_Start_002/Dave/Generated/GLOBAL_SCU_XMC4\global_scu_xmc4.h ****  *   {
 218:C:/Workspaces/DAVE-4.4.2-64Bit/fh-kaernten/DAVE_M2M_1/XMC4500_MTSR_Start_002/Dave/Generated/GLOBAL_SCU_XMC4\global_scu_xmc4.h ****  *   }
 219:C:/Workspaces/DAVE-4.4.2-64Bit/fh-kaernten/DAVE_M2M_1/XMC4500_MTSR_Start_002/Dave/Generated/GLOBAL_SCU_XMC4\global_scu_xmc4.h ****  *   return (0);
 220:C:/Workspaces/DAVE-4.4.2-64Bit/fh-kaernten/DAVE_M2M_1/XMC4500_MTSR_Start_002/Dave/Generated/GLOBAL_SCU_XMC4\global_scu_xmc4.h ****  * }
 221:C:/Workspaces/DAVE-4.4.2-64Bit/fh-kaernten/DAVE_M2M_1/XMC4500_MTSR_Start_002/Dave/Generated/GLOBAL_SCU_XMC4\global_scu_xmc4.h ****  * @endcode<BR> </p>
 222:C:/Workspaces/DAVE-4.4.2-64Bit/fh-kaernten/DAVE_M2M_1/XMC4500_MTSR_Start_002/Dave/Generated/GLOBAL_SCU_XMC4\global_scu_xmc4.h ****  */
 223:C:/Workspaces/DAVE-4.4.2-64Bit/fh-kaernten/DAVE_M2M_1/XMC4500_MTSR_Start_002/Dave/Generated/GLOBAL_SCU_XMC4\global_scu_xmc4.h **** DAVE_APP_VERSION_t GLOBAL_SCU_XMC4_GetAppVersion(void);
 224:C:/Workspaces/DAVE-4.4.2-64Bit/fh-kaernten/DAVE_M2M_1/XMC4500_MTSR_Start_002/Dave/Generated/GLOBAL_SCU_XMC4\global_scu_xmc4.h **** 
 225:C:/Workspaces/DAVE-4.4.2-64Bit/fh-kaernten/DAVE_M2M_1/XMC4500_MTSR_Start_002/Dave/Generated/GLOBAL_SCU_XMC4\global_scu_xmc4.h **** /**
 226:C:/Workspaces/DAVE-4.4.2-64Bit/fh-kaernten/DAVE_M2M_1/XMC4500_MTSR_Start_002/Dave/Generated/GLOBAL_SCU_XMC4\global_scu_xmc4.h ****  * @brief  Initialize the GLOBAL_SCU_XMC4 APP
 227:C:/Workspaces/DAVE-4.4.2-64Bit/fh-kaernten/DAVE_M2M_1/XMC4500_MTSR_Start_002/Dave/Generated/GLOBAL_SCU_XMC4\global_scu_xmc4.h ****  *
 228:C:/Workspaces/DAVE-4.4.2-64Bit/fh-kaernten/DAVE_M2M_1/XMC4500_MTSR_Start_002/Dave/Generated/GLOBAL_SCU_XMC4\global_scu_xmc4.h ****  * This function initializes the required CPU_XMC4 APP if not yet done,
 229:C:/Workspaces/DAVE-4.4.2-64Bit/fh-kaernten/DAVE_M2M_1/XMC4500_MTSR_Start_002/Dave/Generated/GLOBAL_SCU_XMC4\global_scu_xmc4.h ****  * sets the priority and subpriority of the SCU_0 IRQ, and enables
 230:C:/Workspaces/DAVE-4.4.2-64Bit/fh-kaernten/DAVE_M2M_1/XMC4500_MTSR_Start_002/Dave/Generated/GLOBAL_SCU_XMC4\global_scu_xmc4.h ****  * the IRQ if the user has selected so.
 231:C:/Workspaces/DAVE-4.4.2-64Bit/fh-kaernten/DAVE_M2M_1/XMC4500_MTSR_Start_002/Dave/Generated/GLOBAL_SCU_XMC4\global_scu_xmc4.h ****  * This function is called from DAVE_Init() or top level APP requiring the
 232:C:/Workspaces/DAVE-4.4.2-64Bit/fh-kaernten/DAVE_M2M_1/XMC4500_MTSR_Start_002/Dave/Generated/GLOBAL_SCU_XMC4\global_scu_xmc4.h ****  * GLOBAL_SCU_XMC4 APP.
 233:C:/Workspaces/DAVE-4.4.2-64Bit/fh-kaernten/DAVE_M2M_1/XMC4500_MTSR_Start_002/Dave/Generated/GLOBAL_SCU_XMC4\global_scu_xmc4.h ****  *
 234:C:/Workspaces/DAVE-4.4.2-64Bit/fh-kaernten/DAVE_M2M_1/XMC4500_MTSR_Start_002/Dave/Generated/GLOBAL_SCU_XMC4\global_scu_xmc4.h ****  * @param  handle Runtime handler
 235:C:/Workspaces/DAVE-4.4.2-64Bit/fh-kaernten/DAVE_M2M_1/XMC4500_MTSR_Start_002/Dave/Generated/GLOBAL_SCU_XMC4\global_scu_xmc4.h ****  *
 236:C:/Workspaces/DAVE-4.4.2-64Bit/fh-kaernten/DAVE_M2M_1/XMC4500_MTSR_Start_002/Dave/Generated/GLOBAL_SCU_XMC4\global_scu_xmc4.h ****  * @return GLOBAL_SCU_XMC4_STATUS_t Indicates initialization status
 237:C:/Workspaces/DAVE-4.4.2-64Bit/fh-kaernten/DAVE_M2M_1/XMC4500_MTSR_Start_002/Dave/Generated/GLOBAL_SCU_XMC4\global_scu_xmc4.h ****  *
 238:C:/Workspaces/DAVE-4.4.2-64Bit/fh-kaernten/DAVE_M2M_1/XMC4500_MTSR_Start_002/Dave/Generated/GLOBAL_SCU_XMC4\global_scu_xmc4.h ****  */
 239:C:/Workspaces/DAVE-4.4.2-64Bit/fh-kaernten/DAVE_M2M_1/XMC4500_MTSR_Start_002/Dave/Generated/GLOBAL_SCU_XMC4\global_scu_xmc4.h **** GLOBAL_SCU_XMC4_STATUS_t GLOBAL_SCU_XMC4_Init(GLOBAL_SCU_XMC4_t *const handle);
 240:C:/Workspaces/DAVE-4.4.2-64Bit/fh-kaernten/DAVE_M2M_1/XMC4500_MTSR_Start_002/Dave/Generated/GLOBAL_SCU_XMC4\global_scu_xmc4.h **** 
 241:C:/Workspaces/DAVE-4.4.2-64Bit/fh-kaernten/DAVE_M2M_1/XMC4500_MTSR_Start_002/Dave/Generated/GLOBAL_SCU_XMC4\global_scu_xmc4.h **** /**
 242:C:/Workspaces/DAVE-4.4.2-64Bit/fh-kaernten/DAVE_M2M_1/XMC4500_MTSR_Start_002/Dave/Generated/GLOBAL_SCU_XMC4\global_scu_xmc4.h ****  * @brief Register an event callback routine
 243:C:/Workspaces/DAVE-4.4.2-64Bit/fh-kaernten/DAVE_M2M_1/XMC4500_MTSR_Start_002/Dave/Generated/GLOBAL_SCU_XMC4\global_scu_xmc4.h ****  * This function registers an event callback routine for a specific event.
 244:C:/Workspaces/DAVE-4.4.2-64Bit/fh-kaernten/DAVE_M2M_1/XMC4500_MTSR_Start_002/Dave/Generated/GLOBAL_SCU_XMC4\global_scu_xmc4.h ****  * Note: User needs to enable the event generation separately.
 245:C:/Workspaces/DAVE-4.4.2-64Bit/fh-kaernten/DAVE_M2M_1/XMC4500_MTSR_Start_002/Dave/Generated/GLOBAL_SCU_XMC4\global_scu_xmc4.h ****  *       See GLOBAL_SCU_XMC4_EnableEvent and GLOBAL_SCU_XMC4_DisableEvent.
 246:C:/Workspaces/DAVE-4.4.2-64Bit/fh-kaernten/DAVE_M2M_1/XMC4500_MTSR_Start_002/Dave/Generated/GLOBAL_SCU_XMC4\global_scu_xmc4.h ****  *
 247:C:/Workspaces/DAVE-4.4.2-64Bit/fh-kaernten/DAVE_M2M_1/XMC4500_MTSR_Start_002/Dave/Generated/GLOBAL_SCU_XMC4\global_scu_xmc4.h ****  * @param  event    Event for which the callback is register
 248:C:/Workspaces/DAVE-4.4.2-64Bit/fh-kaernten/DAVE_M2M_1/XMC4500_MTSR_Start_002/Dave/Generated/GLOBAL_SCU_XMC4\global_scu_xmc4.h ****  * @param  callback Routine to handle occurrence of event
 249:C:/Workspaces/DAVE-4.4.2-64Bit/fh-kaernten/DAVE_M2M_1/XMC4500_MTSR_Start_002/Dave/Generated/GLOBAL_SCU_XMC4\global_scu_xmc4.h ****  *
 250:C:/Workspaces/DAVE-4.4.2-64Bit/fh-kaernten/DAVE_M2M_1/XMC4500_MTSR_Start_002/Dave/Generated/GLOBAL_SCU_XMC4\global_scu_xmc4.h ****  * @return GLOBAL_SCU_XMC4_STATUS_t Indicates registration status
 251:C:/Workspaces/DAVE-4.4.2-64Bit/fh-kaernten/DAVE_M2M_1/XMC4500_MTSR_Start_002/Dave/Generated/GLOBAL_SCU_XMC4\global_scu_xmc4.h ****  *
 252:C:/Workspaces/DAVE-4.4.2-64Bit/fh-kaernten/DAVE_M2M_1/XMC4500_MTSR_Start_002/Dave/Generated/GLOBAL_SCU_XMC4\global_scu_xmc4.h ****  * @code
 253:C:/Workspaces/DAVE-4.4.2-64Bit/fh-kaernten/DAVE_M2M_1/XMC4500_MTSR_Start_002/Dave/Generated/GLOBAL_SCU_XMC4\global_scu_xmc4.h ****  * #include <DAVE.h>
 254:C:/Workspaces/DAVE-4.4.2-64Bit/fh-kaernten/DAVE_M2M_1/XMC4500_MTSR_Start_002/Dave/Generated/GLOBAL_SCU_XMC4\global_scu_xmc4.h ****  *
 255:C:/Workspaces/DAVE-4.4.2-64Bit/fh-kaernten/DAVE_M2M_1/XMC4500_MTSR_Start_002/Dave/Generated/GLOBAL_SCU_XMC4\global_scu_xmc4.h ****  * void CbListener(void)
 256:C:/Workspaces/DAVE-4.4.2-64Bit/fh-kaernten/DAVE_M2M_1/XMC4500_MTSR_Start_002/Dave/Generated/GLOBAL_SCU_XMC4\global_scu_xmc4.h ****  * {
 257:C:/Workspaces/DAVE-4.4.2-64Bit/fh-kaernten/DAVE_M2M_1/XMC4500_MTSR_Start_002/Dave/Generated/GLOBAL_SCU_XMC4\global_scu_xmc4.h ****  *   // Callback function implementation
 258:C:/Workspaces/DAVE-4.4.2-64Bit/fh-kaernten/DAVE_M2M_1/XMC4500_MTSR_Start_002/Dave/Generated/GLOBAL_SCU_XMC4\global_scu_xmc4.h ****  * };
 259:C:/Workspaces/DAVE-4.4.2-64Bit/fh-kaernten/DAVE_M2M_1/XMC4500_MTSR_Start_002/Dave/Generated/GLOBAL_SCU_XMC4\global_scu_xmc4.h ****  *
 260:C:/Workspaces/DAVE-4.4.2-64Bit/fh-kaernten/DAVE_M2M_1/XMC4500_MTSR_Start_002/Dave/Generated/GLOBAL_SCU_XMC4\global_scu_xmc4.h ****  * int main(void)
 261:C:/Workspaces/DAVE-4.4.2-64Bit/fh-kaernten/DAVE_M2M_1/XMC4500_MTSR_Start_002/Dave/Generated/GLOBAL_SCU_XMC4\global_scu_xmc4.h ****  * {
 262:C:/Workspaces/DAVE-4.4.2-64Bit/fh-kaernten/DAVE_M2M_1/XMC4500_MTSR_Start_002/Dave/Generated/GLOBAL_SCU_XMC4\global_scu_xmc4.h ****  *   DAVE_Init();
 263:C:/Workspaces/DAVE-4.4.2-64Bit/fh-kaernten/DAVE_M2M_1/XMC4500_MTSR_Start_002/Dave/Generated/GLOBAL_SCU_XMC4\global_scu_xmc4.h ****  *
 264:C:/Workspaces/DAVE-4.4.2-64Bit/fh-kaernten/DAVE_M2M_1/XMC4500_MTSR_Start_002/Dave/Generated/GLOBAL_SCU_XMC4\global_scu_xmc4.h ****  *   GLOBAL_SCU_XMC4_RegisterCallback(GLOBAL_SCU_XMC4_EVENT_RTC_ALARM, CbListener);
 265:C:/Workspaces/DAVE-4.4.2-64Bit/fh-kaernten/DAVE_M2M_1/XMC4500_MTSR_Start_002/Dave/Generated/GLOBAL_SCU_XMC4\global_scu_xmc4.h ****  *   GLOBAL_SCU_XMC4_EnableEvent(GLOBAL_SCU_XMC4_EVENT_RTC_ALARM);
 266:C:/Workspaces/DAVE-4.4.2-64Bit/fh-kaernten/DAVE_M2M_1/XMC4500_MTSR_Start_002/Dave/Generated/GLOBAL_SCU_XMC4\global_scu_xmc4.h ****  *
 267:C:/Workspaces/DAVE-4.4.2-64Bit/fh-kaernten/DAVE_M2M_1/XMC4500_MTSR_Start_002/Dave/Generated/GLOBAL_SCU_XMC4\global_scu_xmc4.h ****  *   while(1);
 268:C:/Workspaces/DAVE-4.4.2-64Bit/fh-kaernten/DAVE_M2M_1/XMC4500_MTSR_Start_002/Dave/Generated/GLOBAL_SCU_XMC4\global_scu_xmc4.h ****  * }
 269:C:/Workspaces/DAVE-4.4.2-64Bit/fh-kaernten/DAVE_M2M_1/XMC4500_MTSR_Start_002/Dave/Generated/GLOBAL_SCU_XMC4\global_scu_xmc4.h ****  *
 270:C:/Workspaces/DAVE-4.4.2-64Bit/fh-kaernten/DAVE_M2M_1/XMC4500_MTSR_Start_002/Dave/Generated/GLOBAL_SCU_XMC4\global_scu_xmc4.h ****  * @endcode<BR> </p>
 271:C:/Workspaces/DAVE-4.4.2-64Bit/fh-kaernten/DAVE_M2M_1/XMC4500_MTSR_Start_002/Dave/Generated/GLOBAL_SCU_XMC4\global_scu_xmc4.h ****  */
 272:C:/Workspaces/DAVE-4.4.2-64Bit/fh-kaernten/DAVE_M2M_1/XMC4500_MTSR_Start_002/Dave/Generated/GLOBAL_SCU_XMC4\global_scu_xmc4.h **** GLOBAL_SCU_XMC4_STATUS_t GLOBAL_SCU_XMC4_RegisterCallback(const GLOBAL_SCU_XMC4_EVENT_t event,
 273:C:/Workspaces/DAVE-4.4.2-64Bit/fh-kaernten/DAVE_M2M_1/XMC4500_MTSR_Start_002/Dave/Generated/GLOBAL_SCU_XMC4\global_scu_xmc4.h ****                                                           const GLOBAL_SCU_XMC4_EVENT_HANDLER_t cal
 274:C:/Workspaces/DAVE-4.4.2-64Bit/fh-kaernten/DAVE_M2M_1/XMC4500_MTSR_Start_002/Dave/Generated/GLOBAL_SCU_XMC4\global_scu_xmc4.h **** 
 275:C:/Workspaces/DAVE-4.4.2-64Bit/fh-kaernten/DAVE_M2M_1/XMC4500_MTSR_Start_002/Dave/Generated/GLOBAL_SCU_XMC4\global_scu_xmc4.h **** /**
 276:C:/Workspaces/DAVE-4.4.2-64Bit/fh-kaernten/DAVE_M2M_1/XMC4500_MTSR_Start_002/Dave/Generated/GLOBAL_SCU_XMC4\global_scu_xmc4.h ****  * @brief Enable the handling of events
 277:C:/Workspaces/DAVE-4.4.2-64Bit/fh-kaernten/DAVE_M2M_1/XMC4500_MTSR_Start_002/Dave/Generated/GLOBAL_SCU_XMC4\global_scu_xmc4.h ****  *
 278:C:/Workspaces/DAVE-4.4.2-64Bit/fh-kaernten/DAVE_M2M_1/XMC4500_MTSR_Start_002/Dave/Generated/GLOBAL_SCU_XMC4\global_scu_xmc4.h ****  * @param  void
 279:C:/Workspaces/DAVE-4.4.2-64Bit/fh-kaernten/DAVE_M2M_1/XMC4500_MTSR_Start_002/Dave/Generated/GLOBAL_SCU_XMC4\global_scu_xmc4.h ****  */
 280:C:/Workspaces/DAVE-4.4.2-64Bit/fh-kaernten/DAVE_M2M_1/XMC4500_MTSR_Start_002/Dave/Generated/GLOBAL_SCU_XMC4\global_scu_xmc4.h **** __STATIC_INLINE void GLOBAL_SCU_XMC4_EnableIRQ(void)
 281:C:/Workspaces/DAVE-4.4.2-64Bit/fh-kaernten/DAVE_M2M_1/XMC4500_MTSR_Start_002/Dave/Generated/GLOBAL_SCU_XMC4\global_scu_xmc4.h **** {
 282:C:/Workspaces/DAVE-4.4.2-64Bit/fh-kaernten/DAVE_M2M_1/XMC4500_MTSR_Start_002/Dave/Generated/GLOBAL_SCU_XMC4\global_scu_xmc4.h ****   NVIC_EnableIRQ((IRQn_Type)0);
 283:C:/Workspaces/DAVE-4.4.2-64Bit/fh-kaernten/DAVE_M2M_1/XMC4500_MTSR_Start_002/Dave/Generated/GLOBAL_SCU_XMC4\global_scu_xmc4.h **** }
 284:C:/Workspaces/DAVE-4.4.2-64Bit/fh-kaernten/DAVE_M2M_1/XMC4500_MTSR_Start_002/Dave/Generated/GLOBAL_SCU_XMC4\global_scu_xmc4.h **** 
 285:C:/Workspaces/DAVE-4.4.2-64Bit/fh-kaernten/DAVE_M2M_1/XMC4500_MTSR_Start_002/Dave/Generated/GLOBAL_SCU_XMC4\global_scu_xmc4.h **** /**
 286:C:/Workspaces/DAVE-4.4.2-64Bit/fh-kaernten/DAVE_M2M_1/XMC4500_MTSR_Start_002/Dave/Generated/GLOBAL_SCU_XMC4\global_scu_xmc4.h ****  * @brief Disable the handling of events
 287:C:/Workspaces/DAVE-4.4.2-64Bit/fh-kaernten/DAVE_M2M_1/XMC4500_MTSR_Start_002/Dave/Generated/GLOBAL_SCU_XMC4\global_scu_xmc4.h ****  *
 288:C:/Workspaces/DAVE-4.4.2-64Bit/fh-kaernten/DAVE_M2M_1/XMC4500_MTSR_Start_002/Dave/Generated/GLOBAL_SCU_XMC4\global_scu_xmc4.h ****  * @param  void
 289:C:/Workspaces/DAVE-4.4.2-64Bit/fh-kaernten/DAVE_M2M_1/XMC4500_MTSR_Start_002/Dave/Generated/GLOBAL_SCU_XMC4\global_scu_xmc4.h ****  */
 290:C:/Workspaces/DAVE-4.4.2-64Bit/fh-kaernten/DAVE_M2M_1/XMC4500_MTSR_Start_002/Dave/Generated/GLOBAL_SCU_XMC4\global_scu_xmc4.h **** __STATIC_INLINE void GLOBAL_SCU_XMC4_DisableIRQ(void)
 291:C:/Workspaces/DAVE-4.4.2-64Bit/fh-kaernten/DAVE_M2M_1/XMC4500_MTSR_Start_002/Dave/Generated/GLOBAL_SCU_XMC4\global_scu_xmc4.h **** {
 292:C:/Workspaces/DAVE-4.4.2-64Bit/fh-kaernten/DAVE_M2M_1/XMC4500_MTSR_Start_002/Dave/Generated/GLOBAL_SCU_XMC4\global_scu_xmc4.h ****   NVIC_DisableIRQ((IRQn_Type)0);
 293:C:/Workspaces/DAVE-4.4.2-64Bit/fh-kaernten/DAVE_M2M_1/XMC4500_MTSR_Start_002/Dave/Generated/GLOBAL_SCU_XMC4\global_scu_xmc4.h **** }
 294:C:/Workspaces/DAVE-4.4.2-64Bit/fh-kaernten/DAVE_M2M_1/XMC4500_MTSR_Start_002/Dave/Generated/GLOBAL_SCU_XMC4\global_scu_xmc4.h **** /**
 295:C:/Workspaces/DAVE-4.4.2-64Bit/fh-kaernten/DAVE_M2M_1/XMC4500_MTSR_Start_002/Dave/Generated/GLOBAL_SCU_XMC4\global_scu_xmc4.h ****  * @brief Enable a specific event
 296:C:/Workspaces/DAVE-4.4.2-64Bit/fh-kaernten/DAVE_M2M_1/XMC4500_MTSR_Start_002/Dave/Generated/GLOBAL_SCU_XMC4\global_scu_xmc4.h ****  *
 297:C:/Workspaces/DAVE-4.4.2-64Bit/fh-kaernten/DAVE_M2M_1/XMC4500_MTSR_Start_002/Dave/Generated/GLOBAL_SCU_XMC4\global_scu_xmc4.h ****  * @param event Events to be enabled. See GLOBAL_SCU_XMC4_EVENT_t.
 298:C:/Workspaces/DAVE-4.4.2-64Bit/fh-kaernten/DAVE_M2M_1/XMC4500_MTSR_Start_002/Dave/Generated/GLOBAL_SCU_XMC4\global_scu_xmc4.h ****  */
 299:C:/Workspaces/DAVE-4.4.2-64Bit/fh-kaernten/DAVE_M2M_1/XMC4500_MTSR_Start_002/Dave/Generated/GLOBAL_SCU_XMC4\global_scu_xmc4.h **** __STATIC_INLINE void GLOBAL_SCU_XMC4_EnableEvent(const GLOBAL_SCU_XMC4_EVENT_t event)
 300:C:/Workspaces/DAVE-4.4.2-64Bit/fh-kaernten/DAVE_M2M_1/XMC4500_MTSR_Start_002/Dave/Generated/GLOBAL_SCU_XMC4\global_scu_xmc4.h **** {
  73              	 .loc 2 300 0
  74              	 .cfi_startproc
  75              	 
  76              	 
  77 0000 80B5     	 push {r7,lr}
  78              	.LCFI4:
  79              	 .cfi_def_cfa_offset 8
  80              	 .cfi_offset 7,-8
  81              	 .cfi_offset 14,-4
  82 0002 82B0     	 sub sp,sp,#8
  83              	.LCFI5:
  84              	 .cfi_def_cfa_offset 16
  85 0004 00AF     	 add r7,sp,#0
  86              	.LCFI6:
  87              	 .cfi_def_cfa_register 7
  88 0006 7860     	 str r0,[r7,#4]
 301:C:/Workspaces/DAVE-4.4.2-64Bit/fh-kaernten/DAVE_M2M_1/XMC4500_MTSR_Start_002/Dave/Generated/GLOBAL_SCU_XMC4\global_scu_xmc4.h ****   XMC_SCU_INTERRUPT_EnableEvent(event);
  89              	 .loc 2 301 0
  90 0008 7868     	 ldr r0,[r7,#4]
  91 000a FFF7FEFF 	 bl XMC_SCU_INTERRUPT_EnableEvent
 302:C:/Workspaces/DAVE-4.4.2-64Bit/fh-kaernten/DAVE_M2M_1/XMC4500_MTSR_Start_002/Dave/Generated/GLOBAL_SCU_XMC4\global_scu_xmc4.h **** }
  92              	 .loc 2 302 0
  93 000e 0837     	 adds r7,r7,#8
  94              	.LCFI7:
  95              	 .cfi_def_cfa_offset 8
  96 0010 BD46     	 mov sp,r7
  97              	.LCFI8:
  98              	 .cfi_def_cfa_register 13
  99              	 
 100 0012 80BD     	 pop {r7,pc}
 101              	 .cfi_endproc
 102              	.LFE157:
 104              	 .section .text.RTC_Start,"ax",%progbits
 105              	 .align 2
 106              	 .thumb
 107              	 .thumb_func
 109              	RTC_Start:
 110              	.LFB159:
 111              	 .file 3 "../Dave/Generated/RTC/rtc.h"
   1:../Dave/Generated/RTC/rtc.h **** /**
   2:../Dave/Generated/RTC/rtc.h ****  * @file rtc.h
   3:../Dave/Generated/RTC/rtc.h ****  * @date 2015-05-18
   4:../Dave/Generated/RTC/rtc.h ****  *
   5:../Dave/Generated/RTC/rtc.h ****  * NOTE:
   6:../Dave/Generated/RTC/rtc.h ****  * This file is generated by DAVE. Any manual modification done to this file will be lost when the 
   7:../Dave/Generated/RTC/rtc.h ****  * regenerated.
   8:../Dave/Generated/RTC/rtc.h ****  */
   9:../Dave/Generated/RTC/rtc.h **** /**
  10:../Dave/Generated/RTC/rtc.h ****  * @cond
  11:../Dave/Generated/RTC/rtc.h ****  **************************************************************************************************
  12:../Dave/Generated/RTC/rtc.h ****  * RTC v4.1.4 Facilitates to generate real time clock and alarm
  13:../Dave/Generated/RTC/rtc.h ****  *
  14:../Dave/Generated/RTC/rtc.h ****  * Copyright (c) 2015, Infineon Technologies AG
  15:../Dave/Generated/RTC/rtc.h ****  * All rights reserved.
  16:../Dave/Generated/RTC/rtc.h ****  *
  17:../Dave/Generated/RTC/rtc.h ****  * Redistribution and use in source and binary forms, with or without modification,are permitted pr
  18:../Dave/Generated/RTC/rtc.h ****  * following conditions are met:
  19:../Dave/Generated/RTC/rtc.h ****  *
  20:../Dave/Generated/RTC/rtc.h ****  *   Redistributions of source code must retain the above copyright notice, this list of conditions
  21:../Dave/Generated/RTC/rtc.h ****  *   disclaimer.
  22:../Dave/Generated/RTC/rtc.h ****  *
  23:../Dave/Generated/RTC/rtc.h ****  *   Redistributions in binary form must reproduce the above copyright notice, this list of conditi
  24:../Dave/Generated/RTC/rtc.h ****  *   following disclaimer in the documentation and/or other materials provided with the distributio
  25:../Dave/Generated/RTC/rtc.h ****  *
  26:../Dave/Generated/RTC/rtc.h ****  *   Neither the name of the copyright holders nor the names of its contributors may be used to end
  27:../Dave/Generated/RTC/rtc.h ****  *   products derived from this software without specific prior written permission.
  28:../Dave/Generated/RTC/rtc.h ****  *
  29:../Dave/Generated/RTC/rtc.h ****  * THIS SOFTWARE IS PROVIDED BY THE COPYRIGHT HOLDERS AND CONTRIBUTORS "AS IS" AND ANY EXPRESS OR I
  30:../Dave/Generated/RTC/rtc.h ****  * INCLUDING, BUT NOT LIMITED TO, THE IMPLIED WARRANTIES OF MERCHANTABILITY AND FITNESS FOR A PARTI
  31:../Dave/Generated/RTC/rtc.h ****  * DISCLAIMED. IN NO EVENT SHALL THE COPYRIGHT HOLDER OR CONTRIBUTORS BE LIABLE  FOR ANY DIRECT, IN
  32:../Dave/Generated/RTC/rtc.h ****  * SPECIAL, EXEMPLARY, OR CONSEQUENTIAL DAMAGES (INCLUDING, BUT NOT LIMITED TO, PROCUREMENT OF SUBS
  33:../Dave/Generated/RTC/rtc.h ****  * SERVICES; LOSS OF USE, DATA, OR PROFITS; OR BUSINESS INTERRUPTION) HOWEVER CAUSED AND ON ANY THE
  34:../Dave/Generated/RTC/rtc.h ****  * WHETHER IN CONTRACT, STRICT LIABILITY,OR TORT (INCLUDING NEGLIGENCE OR OTHERWISE) ARISING IN ANY
  35:../Dave/Generated/RTC/rtc.h ****  * USE OF THIS SOFTWARE, EVEN IF ADVISED OF THE POSSIBILITY OF SUCH DAMAGE.
  36:../Dave/Generated/RTC/rtc.h ****  *
  37:../Dave/Generated/RTC/rtc.h ****  * To improve the quality of the software, users are encouraged to share modifications, enhancement
  38:../Dave/Generated/RTC/rtc.h ****  * with Infineon Technologies AG (dave@infineon.com).
  39:../Dave/Generated/RTC/rtc.h ****  **************************************************************************************************
  40:../Dave/Generated/RTC/rtc.h ****  *
  41:../Dave/Generated/RTC/rtc.h ****  * Change History
  42:../Dave/Generated/RTC/rtc.h ****  * --------------
  43:../Dave/Generated/RTC/rtc.h ****  *
  44:../Dave/Generated/RTC/rtc.h ****  * 2015-02-16:
  45:../Dave/Generated/RTC/rtc.h ****  *     - Initial version<br>
  46:../Dave/Generated/RTC/rtc.h ****  *
  47:../Dave/Generated/RTC/rtc.h ****  * 2015-05-18:
  48:../Dave/Generated/RTC/rtc.h ****  *     - LLD version check added
  49:../Dave/Generated/RTC/rtc.h ****  * @endcond
  50:../Dave/Generated/RTC/rtc.h ****  *
  51:../Dave/Generated/RTC/rtc.h ****  */
  52:../Dave/Generated/RTC/rtc.h **** 
  53:../Dave/Generated/RTC/rtc.h **** #ifndef RTC_H
  54:../Dave/Generated/RTC/rtc.h **** #define RTC_H
  55:../Dave/Generated/RTC/rtc.h **** 
  56:../Dave/Generated/RTC/rtc.h **** 
  57:../Dave/Generated/RTC/rtc.h **** /**************************************************************************************************
  58:../Dave/Generated/RTC/rtc.h ****  * HEADER FILES
  59:../Dave/Generated/RTC/rtc.h ****  **************************************************************************************************
  60:../Dave/Generated/RTC/rtc.h **** #include <xmc_scu.h>
  61:../Dave/Generated/RTC/rtc.h **** #include <xmc_rtc.h>
  62:../Dave/Generated/RTC/rtc.h **** #include "rtc_conf.h"
  63:../Dave/Generated/RTC/rtc.h **** #include <DAVE_Common.h>
  64:../Dave/Generated/RTC/rtc.h **** 
  65:../Dave/Generated/RTC/rtc.h **** /**************************************************************************************************
  66:../Dave/Generated/RTC/rtc.h ****  * MACROS
  67:../Dave/Generated/RTC/rtc.h ****  **************************************************************************************************
  68:../Dave/Generated/RTC/rtc.h **** #if (!((XMC_LIB_MAJOR_VERSION == 2U) && \
  69:../Dave/Generated/RTC/rtc.h ****        (XMC_LIB_MINOR_VERSION >= 0U) && \
  70:../Dave/Generated/RTC/rtc.h ****        (XMC_LIB_PATCH_VERSION >= 0U)))
  71:../Dave/Generated/RTC/rtc.h **** #error "RTC APP requires XMC Peripheral Library v2.0.0 or higher"
  72:../Dave/Generated/RTC/rtc.h **** #endif
  73:../Dave/Generated/RTC/rtc.h **** 
  74:../Dave/Generated/RTC/rtc.h **** /**************************************************************************************************
  75:../Dave/Generated/RTC/rtc.h ****  * ENUMS
  76:../Dave/Generated/RTC/rtc.h ****  **************************************************************************************************
  77:../Dave/Generated/RTC/rtc.h **** /**
  78:../Dave/Generated/RTC/rtc.h ****  * @ingroup RTC_enumerations
  79:../Dave/Generated/RTC/rtc.h ****  * @{
  80:../Dave/Generated/RTC/rtc.h ****  */
  81:../Dave/Generated/RTC/rtc.h **** 
  82:../Dave/Generated/RTC/rtc.h **** typedef enum RTC_STATUS
  83:../Dave/Generated/RTC/rtc.h **** {
  84:../Dave/Generated/RTC/rtc.h ****   RTC_STATUS_SUCCESS = 0U,    /**< APP initialization status success */
  85:../Dave/Generated/RTC/rtc.h ****   RTC_STATUS_FAILURE = 1U     /**< APP initialization status failure */
  86:../Dave/Generated/RTC/rtc.h **** } RTC_STATUS_t;
  87:../Dave/Generated/RTC/rtc.h **** 
  88:../Dave/Generated/RTC/rtc.h **** /**
  89:../Dave/Generated/RTC/rtc.h ****  * This enumeration defines RTC Module Enable and Disable values.
  90:../Dave/Generated/RTC/rtc.h ****  */
  91:../Dave/Generated/RTC/rtc.h **** 
  92:../Dave/Generated/RTC/rtc.h **** typedef enum RTC_START
  93:../Dave/Generated/RTC/rtc.h **** {
  94:../Dave/Generated/RTC/rtc.h ****   RTC_START_DISABLE = 0x0U, /**< Disable RTC start */
  95:../Dave/Generated/RTC/rtc.h ****   RTC_START_ENABLE = 0x1U   /**< Enable RTC start */
  96:../Dave/Generated/RTC/rtc.h **** } RTC_START_t;
  97:../Dave/Generated/RTC/rtc.h **** 
  98:../Dave/Generated/RTC/rtc.h **** 
  99:../Dave/Generated/RTC/rtc.h **** /**
 100:../Dave/Generated/RTC/rtc.h ****  * This enumeration defines RTC Module Interrupt Related Events Enable and
 101:../Dave/Generated/RTC/rtc.h ****  * Disable values.
 102:../Dave/Generated/RTC/rtc.h ****  */
 103:../Dave/Generated/RTC/rtc.h **** 
 104:../Dave/Generated/RTC/rtc.h **** typedef enum RTC_INT
 105:../Dave/Generated/RTC/rtc.h **** {
 106:../Dave/Generated/RTC/rtc.h ****   RTC_INT_EVENT_TRIG_SCU_TIMER_ENABLE = 0x0U,   /**< Event Trigger to SCU for Timer Enable */
 107:../Dave/Generated/RTC/rtc.h ****   RTC_INT_EVENT_TRIG_NMI_TIMER_ENABLE = 0x1U,   /**< Event Trigger to NMI for Timer Enable */
 108:../Dave/Generated/RTC/rtc.h ****   RTC_INT_EVENT_TRIG_SCU_ALARM_ENABLE = 0x0U,   /**< Event Trigger to SCU for Alarm Enable */
 109:../Dave/Generated/RTC/rtc.h ****   RTC_INT_EVENT_TRIG_NMI_ALARM_ENABLE = 0x1U,   /**< Event Trigger to NMI for Alarm Enable */
 110:../Dave/Generated/RTC/rtc.h ****   RTC_INT_PERIODIC_SEC_DISABLE = 0x0U,          /**< Timer Periodic Seconds Interrupt Disable */
 111:../Dave/Generated/RTC/rtc.h ****   RTC_INT_PERIODIC_SEC_ENABLE = 0x1U,           /**< Timer Periodic Seconds Interrupt Enable */
 112:../Dave/Generated/RTC/rtc.h ****   RTC_INT_PERIODIC_MIN_DISABLE = 0x0U,          /**< Timer Periodic Minutes Interrupt Disable */
 113:../Dave/Generated/RTC/rtc.h ****   RTC_INT_PERIODIC_MIN_ENABLE = 0x1U,           /**< Timer Periodic Minutes Interrupt Enable */
 114:../Dave/Generated/RTC/rtc.h ****   RTC_INT_PERIODIC_HOUR_DISABLE = 0x0U,         /**< Timer Periodic Hours Interrupt Disable */
 115:../Dave/Generated/RTC/rtc.h ****   RTC_INT_PERIODIC_HOUR_ENABLE = 0x1U,          /**< Timer Periodic Hours Interrupt Enable */
 116:../Dave/Generated/RTC/rtc.h ****   RTC_INT_PERIODIC_DAY_DISABLE = 0x0U,          /**< Timer Periodic Days Interrupt Disable */
 117:../Dave/Generated/RTC/rtc.h ****   RTC_INT_PERIODIC_DAY_ENABLE = 0x1U,           /**< Timer Periodic Days Interrupt Enable */
 118:../Dave/Generated/RTC/rtc.h ****   RTC_INT_PERIODIC_MONTH_DISABLE = 0x0U,        /**< Timer Periodic Month Interrupt Disable */
 119:../Dave/Generated/RTC/rtc.h ****   RTC_INT_PERIODIC_MONTH_ENABLE = 0x1U,         /**< Timer Periodic Month Interrupt Enable */
 120:../Dave/Generated/RTC/rtc.h ****   RTC_INT_PERIODIC_YEAR_DISABLE = 0x0U,         /**< Timer Periodic Years Interrupt Disable */
 121:../Dave/Generated/RTC/rtc.h ****   RTC_INT_PERIODIC_YEAR_ENABLE = 0x1U,          /**< Timer Periodic Years Interrupt Enable */
 122:../Dave/Generated/RTC/rtc.h ****   RTC_INT_ALARM_DISABLE = 0x0U,                 /**< Alarm Interrupt Disable */
 123:../Dave/Generated/RTC/rtc.h ****   RTC_INT_ALARM_ENABLE = 0x1U                   /**< Alarm Interrupt Enable */
 124:../Dave/Generated/RTC/rtc.h **** } RTC_INT_t;
 125:../Dave/Generated/RTC/rtc.h **** 
 126:../Dave/Generated/RTC/rtc.h **** /**************************************************************************************************
 127:../Dave/Generated/RTC/rtc.h **** * DATA STRUCTURES
 128:../Dave/Generated/RTC/rtc.h **** ***************************************************************************************************
 129:../Dave/Generated/RTC/rtc.h **** /**
 130:../Dave/Generated/RTC/rtc.h ****   * @ingroup RTC_datastructures
 131:../Dave/Generated/RTC/rtc.h ****   * @{
 132:../Dave/Generated/RTC/rtc.h ****   */
 133:../Dave/Generated/RTC/rtc.h **** 
 134:../Dave/Generated/RTC/rtc.h **** /**
 135:../Dave/Generated/RTC/rtc.h ****  * RTC APP Handle structure. Stores configured parameters in APP UI.
 136:../Dave/Generated/RTC/rtc.h ****  */
 137:../Dave/Generated/RTC/rtc.h **** 
 138:../Dave/Generated/RTC/rtc.h **** typedef struct RTC_CONFIG
 139:../Dave/Generated/RTC/rtc.h **** {
 140:../Dave/Generated/RTC/rtc.h ****  RTC_START_t start;                           /**< rtc start */
 141:../Dave/Generated/RTC/rtc.h **** 
 142:../Dave/Generated/RTC/rtc.h ****  RTC_INT_t eventtrig_timer;                   /**< event trigger for timer */
 143:../Dave/Generated/RTC/rtc.h ****  RTC_INT_t periodic_sec_intr;                 /**< periodic seconds interrupt */
 144:../Dave/Generated/RTC/rtc.h ****  RTC_INT_t periodic_min_intr;                 /**< periodic minutes interrupt */
 145:../Dave/Generated/RTC/rtc.h ****  RTC_INT_t periodic_hour_intr;                /**< periodic hours interrupt */
 146:../Dave/Generated/RTC/rtc.h ****  RTC_INT_t periodic_day_intr;                 /**< periodic days interrupt */
 147:../Dave/Generated/RTC/rtc.h ****  RTC_INT_t periodic_month_intr;               /**< periodic months interrupt */
 148:../Dave/Generated/RTC/rtc.h ****  RTC_INT_t periodic_year_intr;                /**< periodic years interrupt */
 149:../Dave/Generated/RTC/rtc.h **** 
 150:../Dave/Generated/RTC/rtc.h ****  RTC_INT_t alarm_intr;                        /**< alarm interrupt */
 151:../Dave/Generated/RTC/rtc.h **** 
 152:../Dave/Generated/RTC/rtc.h ****  RTC_INT_t eventtrig_alarm;                   /**< event trigger for alarm */
 153:../Dave/Generated/RTC/rtc.h **** 
 154:../Dave/Generated/RTC/rtc.h **** #if ((UC_FAMILY == XMC4) && (RTC_INTERRUPT_ENABLED == 1))
 155:../Dave/Generated/RTC/rtc.h ****  GLOBAL_SCU_XMC4_EVENT_HANDLER_t pi_listener;            /**< periodic interrupt listener */
 156:../Dave/Generated/RTC/rtc.h ****  GLOBAL_SCU_XMC4_EVENT_HANDLER_t ai_listener;            /**< alarm interrupt listener */
 157:../Dave/Generated/RTC/rtc.h **** #endif
 158:../Dave/Generated/RTC/rtc.h **** 
 159:../Dave/Generated/RTC/rtc.h **** #if ((UC_FAMILY == XMC1) && (RTC_INTERRUPT_ENABLED == 1))
 160:../Dave/Generated/RTC/rtc.h ****  GLOBAL_SCU_XMC1_EVENT_HANDLER_t pi_listener;            /**< periodic interrupt listener */
 161:../Dave/Generated/RTC/rtc.h ****  GLOBAL_SCU_XMC1_EVENT_HANDLER_t ai_listener;            /**< alarm interrupt listener */
 162:../Dave/Generated/RTC/rtc.h **** #endif
 163:../Dave/Generated/RTC/rtc.h **** } RTC_CONFIG_t;
 164:../Dave/Generated/RTC/rtc.h **** 
 165:../Dave/Generated/RTC/rtc.h **** /**
 166:../Dave/Generated/RTC/rtc.h ****  * Runtime RTC handler.
 167:../Dave/Generated/RTC/rtc.h ****  */
 168:../Dave/Generated/RTC/rtc.h **** typedef struct RealTimeClock
 169:../Dave/Generated/RTC/rtc.h **** {
 170:../Dave/Generated/RTC/rtc.h ****   const XMC_RTC_CONFIG_t *const time_alarm_config; /** Pointer to RTC LLD configuration data */
 171:../Dave/Generated/RTC/rtc.h ****   const RTC_CONFIG_t *const config;                /** Pointer to configuration data */
 172:../Dave/Generated/RTC/rtc.h ****   bool initialized;                                /** status for initialized or not */
 173:../Dave/Generated/RTC/rtc.h **** } RTC_t;
 174:../Dave/Generated/RTC/rtc.h **** /**
 175:../Dave/Generated/RTC/rtc.h ****  *@}
 176:../Dave/Generated/RTC/rtc.h ****  */
 177:../Dave/Generated/RTC/rtc.h **** 
 178:../Dave/Generated/RTC/rtc.h **** #ifdef __cplusplus
 179:../Dave/Generated/RTC/rtc.h **** extern "C" {
 180:../Dave/Generated/RTC/rtc.h **** #endif
 181:../Dave/Generated/RTC/rtc.h **** /**************************************************************************************************
 182:../Dave/Generated/RTC/rtc.h ****  * API PROTOTYPES
 183:../Dave/Generated/RTC/rtc.h **** ***************************************************************************************************
 184:../Dave/Generated/RTC/rtc.h **** 
 185:../Dave/Generated/RTC/rtc.h **** /**
 186:../Dave/Generated/RTC/rtc.h ****  * @ingroup RTC_apidoc
 187:../Dave/Generated/RTC/rtc.h ****  * @{
 188:../Dave/Generated/RTC/rtc.h ****  */
 189:../Dave/Generated/RTC/rtc.h **** 
 190:../Dave/Generated/RTC/rtc.h **** /**
 191:../Dave/Generated/RTC/rtc.h ****  * @brief Get RTC APP version.
 192:../Dave/Generated/RTC/rtc.h ****  * @return @ref DAVE_APP_VERSION_t APP version information (major, minor and patch number)
 193:../Dave/Generated/RTC/rtc.h ****  *
 194:../Dave/Generated/RTC/rtc.h ****  * \par<b>Description: </b><br>
 195:../Dave/Generated/RTC/rtc.h ****  * The function can be used to check application software compatibility with a
 196:../Dave/Generated/RTC/rtc.h ****  * specific version of the APP.
 197:../Dave/Generated/RTC/rtc.h ****  *
 198:../Dave/Generated/RTC/rtc.h ****  * @code
 199:../Dave/Generated/RTC/rtc.h ****  *  #include <DAVE.h>
 200:../Dave/Generated/RTC/rtc.h ****  *  #include <DAVE_common.h>
 201:../Dave/Generated/RTC/rtc.h ****  *  int main(void)
 202:../Dave/Generated/RTC/rtc.h ****  *  {
 203:../Dave/Generated/RTC/rtc.h ****  *    DAVE_APP_VERSION_t version;
 204:../Dave/Generated/RTC/rtc.h ****  *    DAVE_Init();
 205:../Dave/Generated/RTC/rtc.h ****  *    version = RTC_GetAppVersion();
 206:../Dave/Generated/RTC/rtc.h ****  *    if(version.major != 4U)
 207:../Dave/Generated/RTC/rtc.h ****  *    {
 208:../Dave/Generated/RTC/rtc.h ****  *    }
 209:../Dave/Generated/RTC/rtc.h ****  *    return 0;
 210:../Dave/Generated/RTC/rtc.h ****  *  }
 211:../Dave/Generated/RTC/rtc.h ****  * @endcode<BR> </p>
 212:../Dave/Generated/RTC/rtc.h ****  */
 213:../Dave/Generated/RTC/rtc.h **** DAVE_APP_VERSION_t RTC_GetAppVersion(void);
 214:../Dave/Generated/RTC/rtc.h **** 
 215:../Dave/Generated/RTC/rtc.h **** 
 216:../Dave/Generated/RTC/rtc.h ****  /**
 217:../Dave/Generated/RTC/rtc.h ****  * @brief Initializes RTC module.
 218:../Dave/Generated/RTC/rtc.h ****  * @param handle Constant pointer to RTC structure of type @ref RTC_t
 219:../Dave/Generated/RTC/rtc.h ****  * @return @ref RTC_STATUS_t
 220:../Dave/Generated/RTC/rtc.h ****  *
 221:../Dave/Generated/RTC/rtc.h ****  * \par<b>Description:</b><br>
 222:../Dave/Generated/RTC/rtc.h ****  * Configures the RTC module registers as per settings updated in
 223:../Dave/Generated/RTC/rtc.h ****  * UI and enables the RTC module.
 224:../Dave/Generated/RTC/rtc.h ****  *
 225:../Dave/Generated/RTC/rtc.h ****  * <P ALIGN="LEFT"><B>Example:</B>
 226:../Dave/Generated/RTC/rtc.h ****  * Pre-requisite: Instantiate RTC APP and generate code before copying below code snippet.
 227:../Dave/Generated/RTC/rtc.h ****  * @code
 228:../Dave/Generated/RTC/rtc.h ****  *  #include <DAVE.h>
 229:../Dave/Generated/RTC/rtc.h ****  *  int main(void)
 230:../Dave/Generated/RTC/rtc.h ****  *  {
 231:../Dave/Generated/RTC/rtc.h ****  *    DAVE_Init(); // RTC_Init(&RTC_0) will be called within DAVE_Init()
 232:../Dave/Generated/RTC/rtc.h ****  *    // ... infinite loop ...
 233:../Dave/Generated/RTC/rtc.h ****  *    while(1)
 234:../Dave/Generated/RTC/rtc.h ****  *    {}
 235:../Dave/Generated/RTC/rtc.h ****  *  }
 236:../Dave/Generated/RTC/rtc.h ****  * @endcode<BR> </p> 
 237:../Dave/Generated/RTC/rtc.h ****  */
 238:../Dave/Generated/RTC/rtc.h **** RTC_STATUS_t RTC_Init(RTC_t *const handle);
 239:../Dave/Generated/RTC/rtc.h **** 
 240:../Dave/Generated/RTC/rtc.h **** /**
 241:../Dave/Generated/RTC/rtc.h ****  * @brief Returns the time in seconds since the epoch time(01/01/1970).
 242:../Dave/Generated/RTC/rtc.h ****  * @param time_value Pointer to structure of type @ref time_t
 243:../Dave/Generated/RTC/rtc.h ****  * @return @ref RTC_STATUS_t
 244:../Dave/Generated/RTC/rtc.h ****  *
 245:../Dave/Generated/RTC/rtc.h ****  * <P ALIGN="LEFT"><B>Example:</B>
 246:../Dave/Generated/RTC/rtc.h ****  * Pre-requisite: Instantiate RTC APP and generate code before copying below code snippet.
 247:../Dave/Generated/RTC/rtc.h ****  * @code 
 248:../Dave/Generated/RTC/rtc.h ****  * #include <DAVE.h>
 249:../Dave/Generated/RTC/rtc.h ****  * int main(void)
 250:../Dave/Generated/RTC/rtc.h ****  * {
 251:../Dave/Generated/RTC/rtc.h ****  *   RTC_STATUS_t status = RTC_STATUS_FAILURE;
 252:../Dave/Generated/RTC/rtc.h ****  *   time_t Time_Sec;
 253:../Dave/Generated/RTC/rtc.h ****  *   DAVE_Init();  // RTC_Init(&RTC_0) will be called within DAVE_Init()
 254:../Dave/Generated/RTC/rtc.h ****  *   status = RTC_Time(&Time_Sec);
 255:../Dave/Generated/RTC/rtc.h ****  *   if(status != RTC_STATUS_SUCCESS)
 256:../Dave/Generated/RTC/rtc.h ****  *   {
 257:../Dave/Generated/RTC/rtc.h ****  *	   //error
 258:../Dave/Generated/RTC/rtc.h ****  *   }
 259:../Dave/Generated/RTC/rtc.h ****  *   // ... infinite loop ...
 260:../Dave/Generated/RTC/rtc.h ****  *   while(1)
 261:../Dave/Generated/RTC/rtc.h ****  *   {}
 262:../Dave/Generated/RTC/rtc.h ****  * }
 263:../Dave/Generated/RTC/rtc.h ****  * @endcode<BR> </p> 
 264:../Dave/Generated/RTC/rtc.h ****  */
 265:../Dave/Generated/RTC/rtc.h **** RTC_STATUS_t RTC_Time(time_t* time_value) ;
 266:../Dave/Generated/RTC/rtc.h **** 
 267:../Dave/Generated/RTC/rtc.h **** /**
 268:../Dave/Generated/RTC/rtc.h ****  * @brief Starts the RTC running
 269:../Dave/Generated/RTC/rtc.h ****  * @return None
 270:../Dave/Generated/RTC/rtc.h ****  *
 271:../Dave/Generated/RTC/rtc.h ****  *\par<b>Description: </b><br>
 272:../Dave/Generated/RTC/rtc.h ****  * Before verifying this API it is required to deselect "Start after initialization" checbox in UI.
 273:../Dave/Generated/RTC/rtc.h ****  * Thereby this API shall be used to start the RTC module.
 274:../Dave/Generated/RTC/rtc.h ****  * <P ALIGN="LEFT"><B>Example:</B>
 275:../Dave/Generated/RTC/rtc.h ****  * Pre-requisite:
 276:../Dave/Generated/RTC/rtc.h ****  * 1. Instantiate RTC APP <br>
 277:../Dave/Generated/RTC/rtc.h ****  * 2. Unselect "Start after initialization checkbox in UI" <br>
 278:../Dave/Generated/RTC/rtc.h ****  * 3. Generate code before copying below code snippet. <br>
 279:../Dave/Generated/RTC/rtc.h ****  * @code
 280:../Dave/Generated/RTC/rtc.h ****  * #include <DAVE.h>
 281:../Dave/Generated/RTC/rtc.h ****  * int main(void)
 282:../Dave/Generated/RTC/rtc.h ****  * {
 283:../Dave/Generated/RTC/rtc.h ****  *   DAVE_Init();// RTC_Init(&RTC_0) will be called within DAVE_Init()
 284:../Dave/Generated/RTC/rtc.h ****  *   RTC_Stop();
 285:../Dave/Generated/RTC/rtc.h ****  *   if (XMC_RTC_IsRunning() == false)
 286:../Dave/Generated/RTC/rtc.h ****  *   {
 287:../Dave/Generated/RTC/rtc.h ****  *     RTC_Start();
 288:../Dave/Generated/RTC/rtc.h ****  *   }
 289:../Dave/Generated/RTC/rtc.h ****  *   // ... infinite loop ...
 290:../Dave/Generated/RTC/rtc.h ****  *   while(1)
 291:../Dave/Generated/RTC/rtc.h ****  *   {}
 292:../Dave/Generated/RTC/rtc.h ****  * }
 293:../Dave/Generated/RTC/rtc.h ****  * @endcode<BR> </p>
 294:../Dave/Generated/RTC/rtc.h ****  */
 295:../Dave/Generated/RTC/rtc.h **** __STATIC_INLINE void RTC_Start(void)
 296:../Dave/Generated/RTC/rtc.h **** {
 112              	 .loc 3 296 0
 113              	 .cfi_startproc
 114              	 
 115              	 
 116 0000 80B5     	 push {r7,lr}
 117              	.LCFI9:
 118              	 .cfi_def_cfa_offset 8
 119              	 .cfi_offset 7,-8
 120              	 .cfi_offset 14,-4
 121 0002 00AF     	 add r7,sp,#0
 122              	.LCFI10:
 123              	 .cfi_def_cfa_register 7
 297:../Dave/Generated/RTC/rtc.h **** 	XMC_RTC_Start();
 124              	 .loc 3 297 0
 125 0004 FFF7FEFF 	 bl XMC_RTC_Start
 298:../Dave/Generated/RTC/rtc.h **** }
 126              	 .loc 3 298 0
 127 0008 80BD     	 pop {r7,pc}
 128              	 .cfi_endproc
 129              	.LFE159:
 131              	 .global RTC_DAYS_IN_MONTH
 132 000a 00BF     	 .section .rodata.RTC_DAYS_IN_MONTH,"a",%progbits
 133              	 .align 2
 136              	RTC_DAYS_IN_MONTH:
 137 0000 00000000 	 .word 0
 138 0004 1F000000 	 .word 31
 139 0008 1C000000 	 .word 28
 140 000c 1F000000 	 .word 31
 141 0010 1E000000 	 .word 30
 142 0014 1F000000 	 .word 31
 143 0018 1E000000 	 .word 30
 144 001c 1F000000 	 .word 31
 145 0020 1F000000 	 .word 31
 146 0024 1E000000 	 .word 30
 147 0028 1F000000 	 .word 31
 148 002c 1E000000 	 .word 30
 149 0030 1F000000 	 .word 31
 150              	 .section .text.RTC_GetAppVersion,"ax",%progbits
 151              	 .align 2
 152              	 .global RTC_GetAppVersion
 153              	 .thumb
 154              	 .thumb_func
 156              	RTC_GetAppVersion:
 157              	.LFB161:
 158              	 .file 4 "../Dave/Generated/RTC/rtc.c"
   1:../Dave/Generated/RTC/rtc.c **** /**
   2:../Dave/Generated/RTC/rtc.c ****  * @file rtc.c
   3:../Dave/Generated/RTC/rtc.c ****  * @date 2015-06-16
   4:../Dave/Generated/RTC/rtc.c ****  *
   5:../Dave/Generated/RTC/rtc.c ****  * NOTE:
   6:../Dave/Generated/RTC/rtc.c ****  * This file is generated by DAVE. Any manual modification done to this file will be lost when the 
   7:../Dave/Generated/RTC/rtc.c ****  */
   8:../Dave/Generated/RTC/rtc.c **** /**
   9:../Dave/Generated/RTC/rtc.c ****  * @cond
  10:../Dave/Generated/RTC/rtc.c ****  **************************************************************************************************
  11:../Dave/Generated/RTC/rtc.c ****  * RTC v4.1.4 Facilitates to generate real time clock and alarm
  12:../Dave/Generated/RTC/rtc.c ****  *
  13:../Dave/Generated/RTC/rtc.c ****  * Copyright (c) 2015, Infineon Technologies AG
  14:../Dave/Generated/RTC/rtc.c ****  * All rights reserved.
  15:../Dave/Generated/RTC/rtc.c ****  *
  16:../Dave/Generated/RTC/rtc.c ****  * Redistribution and use in source and binary forms, with or without modification,are permitted pr
  17:../Dave/Generated/RTC/rtc.c ****  * following conditions are met:
  18:../Dave/Generated/RTC/rtc.c ****  *
  19:../Dave/Generated/RTC/rtc.c ****  *   Redistributions of source code must retain the above copyright notice, this list of conditions
  20:../Dave/Generated/RTC/rtc.c ****  *   disclaimer.
  21:../Dave/Generated/RTC/rtc.c ****  *
  22:../Dave/Generated/RTC/rtc.c ****  *   Redistributions in binary form must reproduce the above copyright notice, this list of conditi
  23:../Dave/Generated/RTC/rtc.c ****  *   following disclaimer in the documentation and/or other materials provided with the distributio
  24:../Dave/Generated/RTC/rtc.c ****  *
  25:../Dave/Generated/RTC/rtc.c ****  *   Neither the name of the copyright holders nor the names of its contributors may be used to end
  26:../Dave/Generated/RTC/rtc.c ****  *   products derived from this software without specific prior written permission.
  27:../Dave/Generated/RTC/rtc.c ****  *
  28:../Dave/Generated/RTC/rtc.c ****  * THIS SOFTWARE IS PROVIDED BY THE COPYRIGHT HOLDERS AND CONTRIBUTORS "AS IS" AND ANY EXPRESS OR I
  29:../Dave/Generated/RTC/rtc.c ****  * INCLUDING, BUT NOT LIMITED TO, THE IMPLIED WARRANTIES OF MERCHANTABILITY AND FITNESS FOR A PARTI
  30:../Dave/Generated/RTC/rtc.c ****  * DISCLAIMED. IN NO EVENT SHALL THE COPYRIGHT HOLDER OR CONTRIBUTORS BE LIABLE  FOR ANY DIRECT, IN
  31:../Dave/Generated/RTC/rtc.c ****  * SPECIAL, EXEMPLARY, OR CONSEQUENTIAL DAMAGES (INCLUDING, BUT NOT LIMITED TO, PROCUREMENT OF SUBS
  32:../Dave/Generated/RTC/rtc.c ****  * SERVICES; LOSS OF USE, DATA, OR PROFITS; OR BUSINESS INTERRUPTION) HOWEVER CAUSED AND ON ANY THE
  33:../Dave/Generated/RTC/rtc.c ****  * WHETHER IN CONTRACT, STRICT LIABILITY,OR TORT (INCLUDING NEGLIGENCE OR OTHERWISE) ARISING IN ANY
  34:../Dave/Generated/RTC/rtc.c ****  * USE OF THIS SOFTWARE, EVEN IF ADVISED OF THE POSSIBILITY OF SUCH DAMAGE.
  35:../Dave/Generated/RTC/rtc.c ****  *
  36:../Dave/Generated/RTC/rtc.c ****  * To improve the quality of the software, users are encouraged to share modifications, enhancement
  37:../Dave/Generated/RTC/rtc.c ****  * with Infineon Technologies AG (dave@infineon.com).
  38:../Dave/Generated/RTC/rtc.c ****  **************************************************************************************************
  39:../Dave/Generated/RTC/rtc.c ****  *
  40:../Dave/Generated/RTC/rtc.c ****  * Change History
  41:../Dave/Generated/RTC/rtc.c ****  * --------------
  42:../Dave/Generated/RTC/rtc.c ****  *
  43:../Dave/Generated/RTC/rtc.c ****  * 2015-02-16:
  44:../Dave/Generated/RTC/rtc.c ****  *     - Initial version<br>
  45:../Dave/Generated/RTC/rtc.c ****  *
  46:../Dave/Generated/RTC/rtc.c ****  * 2015-05-18:
  47:../Dave/Generated/RTC/rtc.c ****  *     - Modified SetTime,SetAlarmTime APIs <br>
  48:../Dave/Generated/RTC/rtc.c ****  *
  49:../Dave/Generated/RTC/rtc.c ****  * 2015-06-16:
  50:../Dave/Generated/RTC/rtc.c ****  *     - GLOBAL_SCU enum elements are passed in GLOBAL_SCU_XMC4_RegisterCallback()
  51:../Dave/Generated/RTC/rtc.c ****  * @endcond
  52:../Dave/Generated/RTC/rtc.c ****  *
  53:../Dave/Generated/RTC/rtc.c ****  */
  54:../Dave/Generated/RTC/rtc.c **** 
  55:../Dave/Generated/RTC/rtc.c **** /**
  56:../Dave/Generated/RTC/rtc.c **** * @file rtc.c
  57:../Dave/Generated/RTC/rtc.c **** *
  58:../Dave/Generated/RTC/rtc.c **** *
  59:../Dave/Generated/RTC/rtc.c **** * @brief  Real Time Clock APP Implementation Source File.
  60:../Dave/Generated/RTC/rtc.c **** *
  61:../Dave/Generated/RTC/rtc.c **** *
  62:../Dave/Generated/RTC/rtc.c **** */
  63:../Dave/Generated/RTC/rtc.c **** 
  64:../Dave/Generated/RTC/rtc.c **** /**************************************************************************************************
  65:../Dave/Generated/RTC/rtc.c ****  * HEADER FILES
  66:../Dave/Generated/RTC/rtc.c ****  **************************************************************************************************
  67:../Dave/Generated/RTC/rtc.c **** #include "rtc.h"
  68:../Dave/Generated/RTC/rtc.c **** 
  69:../Dave/Generated/RTC/rtc.c **** /**************************************************************************************************
  70:../Dave/Generated/RTC/rtc.c ****  * MACROS
  71:../Dave/Generated/RTC/rtc.c ****  **************************************************************************************************
  72:../Dave/Generated/RTC/rtc.c **** /* Constant used for the number of days in an year */
  73:../Dave/Generated/RTC/rtc.c **** #define RTC_DAYS_IN_AN_YEAR     (365U)
  74:../Dave/Generated/RTC/rtc.c **** /* Constant used for the seconds in a day */
  75:../Dave/Generated/RTC/rtc.c **** #define RTC_SECONDS_IN_A_DAY    (24U * 60U * 60U)
  76:../Dave/Generated/RTC/rtc.c **** /* Constant used for the seconds in an hour */
  77:../Dave/Generated/RTC/rtc.c **** #define RTC_SECONDS_IN_AN_HOUR  (60U * 60U)
  78:../Dave/Generated/RTC/rtc.c **** /* Constant used for the seconds in a minute */
  79:../Dave/Generated/RTC/rtc.c **** #define RTC_SECONDS_IN_A_MINUTE (60U)
  80:../Dave/Generated/RTC/rtc.c **** /* Constant used for the epoch year */
  81:../Dave/Generated/RTC/rtc.c **** #define RTC_EPOCH_YEAR          (1970U)
  82:../Dave/Generated/RTC/rtc.c **** 
  83:../Dave/Generated/RTC/rtc.c **** /**************************************************************************************************
  84:../Dave/Generated/RTC/rtc.c ****  * LOCAL DATA
  85:../Dave/Generated/RTC/rtc.c ****  **************************************************************************************************
  86:../Dave/Generated/RTC/rtc.c **** /* Constant array used to store the number of days in each month */
  87:../Dave/Generated/RTC/rtc.c **** const int32_t RTC_DAYS_IN_MONTH[13] =
  88:../Dave/Generated/RTC/rtc.c **** {
  89:../Dave/Generated/RTC/rtc.c ****   /* Index from 1, hence skip 0*/
  90:../Dave/Generated/RTC/rtc.c ****   0,
  91:../Dave/Generated/RTC/rtc.c ****   /*Jan, Feb, Mar, Apr, May, Jun, Jul, Aug, Sep, Oct, Nov, Dec*/
  92:../Dave/Generated/RTC/rtc.c ****   31, 28, 31, 30, 31, 30, 31, 31, 30, 31, 30, 31
  93:../Dave/Generated/RTC/rtc.c **** };
  94:../Dave/Generated/RTC/rtc.c **** 
  95:../Dave/Generated/RTC/rtc.c **** /**************************************************************************************************
  96:../Dave/Generated/RTC/rtc.c ****  * LOCAL ROUTINES
  97:../Dave/Generated/RTC/rtc.c ****  **************************************************************************************************
  98:../Dave/Generated/RTC/rtc.c **** uint8_t RTC_lleapyear(uint16_t year);
  99:../Dave/Generated/RTC/rtc.c **** bool RTC_lConfigureInterrupts(RTC_t *const handler);
 100:../Dave/Generated/RTC/rtc.c **** XMC_RTC_STATUS_t RTC_lRegister_Callbacks(RTC_t *const handler);
 101:../Dave/Generated/RTC/rtc.c **** 
 102:../Dave/Generated/RTC/rtc.c **** /**************************************************************************************************
 103:../Dave/Generated/RTC/rtc.c ****  * API IMPLEMENTATION
 104:../Dave/Generated/RTC/rtc.c **** ***************************************************************************************************
 105:../Dave/Generated/RTC/rtc.c **** /*
 106:../Dave/Generated/RTC/rtc.c ****  * API to retrieve the version of the RTC APP
 107:../Dave/Generated/RTC/rtc.c ****  */
 108:../Dave/Generated/RTC/rtc.c **** DAVE_APP_VERSION_t RTC_GetAppVersion(void)
 109:../Dave/Generated/RTC/rtc.c **** {
 159              	 .loc 4 109 0
 160              	 .cfi_startproc
 161              	 
 162              	 
 163              	 
 164 0000 80B4     	 push {r7}
 165              	.LCFI11:
 166              	 .cfi_def_cfa_offset 4
 167              	 .cfi_offset 7,-4
 168 0002 83B0     	 sub sp,sp,#12
 169              	.LCFI12:
 170              	 .cfi_def_cfa_offset 16
 171 0004 00AF     	 add r7,sp,#0
 172              	.LCFI13:
 173              	 .cfi_def_cfa_register 7
 110:../Dave/Generated/RTC/rtc.c ****   DAVE_APP_VERSION_t version;
 111:../Dave/Generated/RTC/rtc.c **** 
 112:../Dave/Generated/RTC/rtc.c ****   version.major = RTC_MAJOR_VERSION;
 174              	 .loc 4 112 0
 175 0006 0423     	 movs r3,#4
 176 0008 3B70     	 strb r3,[r7]
 113:../Dave/Generated/RTC/rtc.c ****   version.minor = RTC_MINOR_VERSION;
 177              	 .loc 4 113 0
 178 000a 0123     	 movs r3,#1
 179 000c 7B70     	 strb r3,[r7,#1]
 114:../Dave/Generated/RTC/rtc.c ****   version.patch = RTC_PATCH_VERSION;
 180              	 .loc 4 114 0
 181 000e 0423     	 movs r3,#4
 182 0010 BB70     	 strb r3,[r7,#2]
 115:../Dave/Generated/RTC/rtc.c **** 
 116:../Dave/Generated/RTC/rtc.c ****   return (version);
 183              	 .loc 4 116 0
 184 0012 3B1D     	 adds r3,r7,#4
 185 0014 3A46     	 mov r2,r7
 186 0016 1268     	 ldr r2,[r2]
 187 0018 1146     	 mov r1,r2
 188 001a 1980     	 strh r1,[r3]
 189 001c 0233     	 adds r3,r3,#2
 190 001e 120C     	 lsrs r2,r2,#16
 191 0020 1A70     	 strb r2,[r3]
 192 0022 0023     	 movs r3,#0
 193 0024 3A79     	 ldrb r2,[r7,#4]
 194 0026 62F30703 	 bfi r3,r2,#0,#8
 195 002a 7A79     	 ldrb r2,[r7,#5]
 196 002c 62F30F23 	 bfi r3,r2,#8,#8
 197 0030 BA79     	 ldrb r2,[r7,#6]
 198 0032 62F31743 	 bfi r3,r2,#16,#8
 117:../Dave/Generated/RTC/rtc.c **** }
 199              	 .loc 4 117 0
 200 0036 1846     	 mov r0,r3
 201 0038 0C37     	 adds r7,r7,#12
 202              	.LCFI14:
 203              	 .cfi_def_cfa_offset 4
 204 003a BD46     	 mov sp,r7
 205              	.LCFI15:
 206              	 .cfi_def_cfa_register 13
 207              	 
 208 003c 5DF8047B 	 ldr r7,[sp],#4
 209              	.LCFI16:
 210              	 .cfi_restore 7
 211              	 .cfi_def_cfa_offset 0
 212 0040 7047     	 bx lr
 213              	 .cfi_endproc
 214              	.LFE161:
 216 0042 00BF     	 .section .text.RTC_Init,"ax",%progbits
 217              	 .align 2
 218              	 .global RTC_Init
 219              	 .thumb
 220              	 .thumb_func
 222              	RTC_Init:
 223              	.LFB162:
 118:../Dave/Generated/RTC/rtc.c **** 
 119:../Dave/Generated/RTC/rtc.c **** /*
 120:../Dave/Generated/RTC/rtc.c ****   Initialization function for the APP. Configures the registers
 121:../Dave/Generated/RTC/rtc.c ****   based on options selected in UI.
 122:../Dave/Generated/RTC/rtc.c **** */
 123:../Dave/Generated/RTC/rtc.c **** RTC_STATUS_t RTC_Init(RTC_t *const handler)
 124:../Dave/Generated/RTC/rtc.c **** {
 224              	 .loc 4 124 0
 225              	 .cfi_startproc
 226              	 
 227              	 
 228 0000 80B5     	 push {r7,lr}
 229              	.LCFI17:
 230              	 .cfi_def_cfa_offset 8
 231              	 .cfi_offset 7,-8
 232              	 .cfi_offset 14,-4
 233 0002 84B0     	 sub sp,sp,#16
 234              	.LCFI18:
 235              	 .cfi_def_cfa_offset 24
 236 0004 00AF     	 add r7,sp,#0
 237              	.LCFI19:
 238              	 .cfi_def_cfa_register 7
 239 0006 7860     	 str r0,[r7,#4]
 125:../Dave/Generated/RTC/rtc.c ****   XMC_RTC_STATUS_t status;
 126:../Dave/Generated/RTC/rtc.c ****   RTC_STATUS_t rtc_initstatus;
 127:../Dave/Generated/RTC/rtc.c ****   bool interrupt_configured;
 128:../Dave/Generated/RTC/rtc.c **** 
 129:../Dave/Generated/RTC/rtc.c ****   XMC_ASSERT("RTC_Init: NULL Handler", handler != NULL);
 130:../Dave/Generated/RTC/rtc.c **** 
 131:../Dave/Generated/RTC/rtc.c ****   status = XMC_RTC_STATUS_OK;
 240              	 .loc 4 131 0
 241 0008 0023     	 movs r3,#0
 242 000a FB73     	 strb r3,[r7,#15]
 132:../Dave/Generated/RTC/rtc.c ****   rtc_initstatus = RTC_STATUS_FAILURE;
 243              	 .loc 4 132 0
 244 000c 0123     	 movs r3,#1
 245 000e BB73     	 strb r3,[r7,#14]
 133:../Dave/Generated/RTC/rtc.c **** 
 134:../Dave/Generated/RTC/rtc.c **** #if (RTC_INTERRUPT_ENABLED == 1)
 135:../Dave/Generated/RTC/rtc.c **** #if (UC_FAMILY == XMC4)
 136:../Dave/Generated/RTC/rtc.c ****   rtc_initstatus = (RTC_STATUS_t)GLOBAL_SCU_XMC4_Init(GLOBAL_SCU_HANDLE);
 246              	 .loc 4 136 0
 247 0010 1F48     	 ldr r0,.L18
 248 0012 FFF7FEFF 	 bl GLOBAL_SCU_XMC4_Init
 249 0016 0346     	 mov r3,r0
 250 0018 BB73     	 strb r3,[r7,#14]
 137:../Dave/Generated/RTC/rtc.c **** 
 138:../Dave/Generated/RTC/rtc.c ****   if (rtc_initstatus == RTC_STATUS_SUCCESS)
 251              	 .loc 4 138 0
 252 001a BB7B     	 ldrb r3,[r7,#14]
 253 001c 002B     	 cmp r3,#0
 254 001e 32D1     	 bne .L10
 139:../Dave/Generated/RTC/rtc.c ****   {
 140:../Dave/Generated/RTC/rtc.c **** #else
 141:../Dave/Generated/RTC/rtc.c ****     rtc_initstatus = (RTC_STATUS_t)GLOBAL_SCU_XMC1_Init(GLOBAL_SCU_HANDLE);
 142:../Dave/Generated/RTC/rtc.c **** 
 143:../Dave/Generated/RTC/rtc.c ****     if (rtc_initstatus == RTC_STATUS_SUCCESS)
 144:../Dave/Generated/RTC/rtc.c ****     {
 145:../Dave/Generated/RTC/rtc.c **** #endif
 146:../Dave/Generated/RTC/rtc.c **** #endif
 147:../Dave/Generated/RTC/rtc.c ****       if (handler->initialized == false)
 255              	 .loc 4 147 0
 256 0020 7B68     	 ldr r3,[r7,#4]
 257 0022 1B7A     	 ldrb r3,[r3,#8]
 258 0024 83F00103 	 eor r3,r3,#1
 259 0028 DBB2     	 uxtb r3,r3
 260 002a 002B     	 cmp r3,#0
 261 002c 29D0     	 beq .L11
 148:../Dave/Generated/RTC/rtc.c ****       {
 149:../Dave/Generated/RTC/rtc.c ****         /* Initialize the clock source and pre-scalar */
 150:../Dave/Generated/RTC/rtc.c ****         status = XMC_RTC_Init((XMC_RTC_CONFIG_t *)(handler->time_alarm_config));
 262              	 .loc 4 150 0
 263 002e 7B68     	 ldr r3,[r7,#4]
 264 0030 1B68     	 ldr r3,[r3]
 265 0032 1846     	 mov r0,r3
 266 0034 FFF7FEFF 	 bl XMC_RTC_Init
 267 0038 0346     	 mov r3,r0
 268 003a FB73     	 strb r3,[r7,#15]
 151:../Dave/Generated/RTC/rtc.c **** 
 152:../Dave/Generated/RTC/rtc.c ****         if (status == XMC_RTC_STATUS_OK)
 269              	 .loc 4 152 0
 270 003c FB7B     	 ldrb r3,[r7,#15]
 271 003e 002B     	 cmp r3,#0
 272 0040 1CD1     	 bne .L12
 153:../Dave/Generated/RTC/rtc.c ****         {
 154:../Dave/Generated/RTC/rtc.c ****           /* Configure periodic, alarm and hibernate periodic interrupts */
 155:../Dave/Generated/RTC/rtc.c ****           interrupt_configured = RTC_lConfigureInterrupts(handler);
 273              	 .loc 4 155 0
 274 0042 7868     	 ldr r0,[r7,#4]
 275 0044 FFF7FEFF 	 bl RTC_lConfigureInterrupts
 276 0048 0346     	 mov r3,r0
 277 004a 7B73     	 strb r3,[r7,#13]
 156:../Dave/Generated/RTC/rtc.c **** 
 157:../Dave/Generated/RTC/rtc.c ****           if (interrupt_configured == true)
 278              	 .loc 4 157 0
 279 004c 7B7B     	 ldrb r3,[r7,#13]
 280 004e 002B     	 cmp r3,#0
 281 0050 04D0     	 beq .L13
 158:../Dave/Generated/RTC/rtc.c ****           {
 159:../Dave/Generated/RTC/rtc.c ****             status = RTC_lRegister_Callbacks(handler);
 282              	 .loc 4 159 0
 283 0052 7868     	 ldr r0,[r7,#4]
 284 0054 FFF7FEFF 	 bl RTC_lRegister_Callbacks
 285 0058 0346     	 mov r3,r0
 286 005a FB73     	 strb r3,[r7,#15]
 287              	.L13:
 160:../Dave/Generated/RTC/rtc.c ****           }
 161:../Dave/Generated/RTC/rtc.c **** 
 162:../Dave/Generated/RTC/rtc.c ****           if (status == XMC_RTC_STATUS_OK)
 288              	 .loc 4 162 0
 289 005c FB7B     	 ldrb r3,[r7,#15]
 290 005e 002B     	 cmp r3,#0
 291 0060 11D1     	 bne .L10
 163:../Dave/Generated/RTC/rtc.c ****           {
 164:../Dave/Generated/RTC/rtc.c ****             /* Check RTC start during init is set or not in UI */
 165:../Dave/Generated/RTC/rtc.c ****             if (handler->config->start == RTC_START_ENABLE)
 292              	 .loc 4 165 0
 293 0062 7B68     	 ldr r3,[r7,#4]
 294 0064 5B68     	 ldr r3,[r3,#4]
 295 0066 1B78     	 ldrb r3,[r3]
 296 0068 012B     	 cmp r3,#1
 297 006a 01D1     	 bne .L15
 166:../Dave/Generated/RTC/rtc.c ****             {
 167:../Dave/Generated/RTC/rtc.c ****               RTC_Start();
 298              	 .loc 4 167 0
 299 006c FFF7FEFF 	 bl RTC_Start
 300              	.L15:
 168:../Dave/Generated/RTC/rtc.c ****             }
 169:../Dave/Generated/RTC/rtc.c ****             handler->initialized = true;
 301              	 .loc 4 169 0
 302 0070 7B68     	 ldr r3,[r7,#4]
 303 0072 0122     	 movs r2,#1
 304 0074 1A72     	 strb r2,[r3,#8]
 170:../Dave/Generated/RTC/rtc.c ****             rtc_initstatus = RTC_STATUS_SUCCESS;
 305              	 .loc 4 170 0
 306 0076 0023     	 movs r3,#0
 307 0078 BB73     	 strb r3,[r7,#14]
 308 007a 04E0     	 b .L10
 309              	.L12:
 171:../Dave/Generated/RTC/rtc.c ****           }
 172:../Dave/Generated/RTC/rtc.c ****         }
 173:../Dave/Generated/RTC/rtc.c ****         else
 174:../Dave/Generated/RTC/rtc.c ****         {
 175:../Dave/Generated/RTC/rtc.c ****           rtc_initstatus = RTC_STATUS_FAILURE;
 310              	 .loc 4 175 0
 311 007c 0123     	 movs r3,#1
 312 007e BB73     	 strb r3,[r7,#14]
 313 0080 01E0     	 b .L10
 314              	.L11:
 176:../Dave/Generated/RTC/rtc.c ****         }
 177:../Dave/Generated/RTC/rtc.c ****       }
 178:../Dave/Generated/RTC/rtc.c ****       else
 179:../Dave/Generated/RTC/rtc.c ****       {
 180:../Dave/Generated/RTC/rtc.c ****         rtc_initstatus = RTC_STATUS_SUCCESS;
 315              	 .loc 4 180 0
 316 0082 0023     	 movs r3,#0
 317 0084 BB73     	 strb r3,[r7,#14]
 318              	.L10:
 181:../Dave/Generated/RTC/rtc.c ****       }
 182:../Dave/Generated/RTC/rtc.c **** #if (RTC_INTERRUPT_ENABLED == 1)
 183:../Dave/Generated/RTC/rtc.c ****    } /* end of if(rtc_initstatus == GLOBAL_SCU_XMC4_STATUS_OK) */
 184:../Dave/Generated/RTC/rtc.c **** #endif
 185:../Dave/Generated/RTC/rtc.c **** 
 186:../Dave/Generated/RTC/rtc.c ****   return (rtc_initstatus);
 319              	 .loc 4 186 0
 320 0086 BB7B     	 ldrb r3,[r7,#14]
 187:../Dave/Generated/RTC/rtc.c **** }
 321              	 .loc 4 187 0
 322 0088 1846     	 mov r0,r3
 323 008a 1037     	 adds r7,r7,#16
 324              	.LCFI20:
 325              	 .cfi_def_cfa_offset 8
 326 008c BD46     	 mov sp,r7
 327              	.LCFI21:
 328              	 .cfi_def_cfa_register 13
 329              	 
 330 008e 80BD     	 pop {r7,pc}
 331              	.L19:
 332              	 .align 2
 333              	.L18:
 334 0090 00000000 	 .word GLOBAL_SCU_XMC4_0
 335              	 .cfi_endproc
 336              	.LFE162:
 338              	 .section .text.RTC_lConfigureInterrupts,"ax",%progbits
 339              	 .align 2
 340              	 .global RTC_lConfigureInterrupts
 341              	 .thumb
 342              	 .thumb_func
 344              	RTC_lConfigureInterrupts:
 345              	.LFB163:
 188:../Dave/Generated/RTC/rtc.c **** /*
 189:../Dave/Generated/RTC/rtc.c ****  *  This function configures periodic and alarm interrupts
 190:../Dave/Generated/RTC/rtc.c ****  */
 191:../Dave/Generated/RTC/rtc.c **** bool RTC_lConfigureInterrupts(RTC_t *const handler)
 192:../Dave/Generated/RTC/rtc.c **** {
 346              	 .loc 4 192 0
 347              	 .cfi_startproc
 348              	 
 349              	 
 350 0000 80B5     	 push {r7,lr}
 351              	.LCFI22:
 352              	 .cfi_def_cfa_offset 8
 353              	 .cfi_offset 7,-8
 354              	 .cfi_offset 14,-4
 355 0002 84B0     	 sub sp,sp,#16
 356              	.LCFI23:
 357              	 .cfi_def_cfa_offset 24
 358 0004 00AF     	 add r7,sp,#0
 359              	.LCFI24:
 360              	 .cfi_def_cfa_register 7
 361 0006 7860     	 str r0,[r7,#4]
 193:../Dave/Generated/RTC/rtc.c ****   uint32_t regval;
 194:../Dave/Generated/RTC/rtc.c ****   bool interrupt_configured = false;
 362              	 .loc 4 194 0
 363 0008 0023     	 movs r3,#0
 364 000a FB73     	 strb r3,[r7,#15]
 195:../Dave/Generated/RTC/rtc.c **** 
 196:../Dave/Generated/RTC/rtc.c ****   /* Enable periodic seconds, minutes, hours days, months and years interrupts */
 197:../Dave/Generated/RTC/rtc.c ****   regval = (((uint32_t)handler->config->periodic_sec_intr << RTC_MSKSR_MPSE_Pos)
 365              	 .loc 4 197 0
 366 000c 7B68     	 ldr r3,[r7,#4]
 367 000e 5B68     	 ldr r3,[r3,#4]
 368 0010 9B78     	 ldrb r3,[r3,#2]
 369 0012 1A46     	 mov r2,r3
 198:../Dave/Generated/RTC/rtc.c ****            | ((uint32_t)handler->config->periodic_min_intr << RTC_MSKSR_MPMI_Pos)
 370              	 .loc 4 198 0
 371 0014 7B68     	 ldr r3,[r7,#4]
 372 0016 5B68     	 ldr r3,[r3,#4]
 373 0018 DB78     	 ldrb r3,[r3,#3]
 374 001a 5B00     	 lsls r3,r3,#1
 375 001c 1A43     	 orrs r2,r2,r3
 199:../Dave/Generated/RTC/rtc.c ****            | ((uint32_t)handler->config->periodic_hour_intr << RTC_MSKSR_MPHO_Pos)
 376              	 .loc 4 199 0
 377 001e 7B68     	 ldr r3,[r7,#4]
 378 0020 5B68     	 ldr r3,[r3,#4]
 379 0022 1B79     	 ldrb r3,[r3,#4]
 380 0024 9B00     	 lsls r3,r3,#2
 381 0026 1A43     	 orrs r2,r2,r3
 200:../Dave/Generated/RTC/rtc.c ****            | ((uint32_t)handler->config->periodic_day_intr << RTC_MSKSR_MPDA_Pos)
 382              	 .loc 4 200 0
 383 0028 7B68     	 ldr r3,[r7,#4]
 384 002a 5B68     	 ldr r3,[r3,#4]
 385 002c 5B79     	 ldrb r3,[r3,#5]
 386 002e DB00     	 lsls r3,r3,#3
 387 0030 1A43     	 orrs r2,r2,r3
 201:../Dave/Generated/RTC/rtc.c ****            | ((uint32_t)handler->config->periodic_month_intr << RTC_MSKSR_MPMO_Pos)
 388              	 .loc 4 201 0
 389 0032 7B68     	 ldr r3,[r7,#4]
 390 0034 5B68     	 ldr r3,[r3,#4]
 391 0036 9B79     	 ldrb r3,[r3,#6]
 392 0038 5B01     	 lsls r3,r3,#5
 393 003a 1A43     	 orrs r2,r2,r3
 202:../Dave/Generated/RTC/rtc.c ****            | ((uint32_t)handler->config->periodic_year_intr << RTC_MSKSR_MPYE_Pos));
 394              	 .loc 4 202 0
 395 003c 7B68     	 ldr r3,[r7,#4]
 396 003e 5B68     	 ldr r3,[r3,#4]
 397 0040 DB79     	 ldrb r3,[r3,#7]
 398 0042 9B01     	 lsls r3,r3,#6
 197:../Dave/Generated/RTC/rtc.c ****            | ((uint32_t)handler->config->periodic_min_intr << RTC_MSKSR_MPMI_Pos)
 399              	 .loc 4 197 0
 400 0044 1343     	 orrs r3,r3,r2
 401 0046 BB60     	 str r3,[r7,#8]
 203:../Dave/Generated/RTC/rtc.c **** 
 204:../Dave/Generated/RTC/rtc.c ****   /* Enable RTC periodic interrupt in SCU when any of the periodic interrupts
 205:../Dave/Generated/RTC/rtc.c ****    * are enabled */
 206:../Dave/Generated/RTC/rtc.c ****   if (regval != 0U)
 402              	 .loc 4 206 0
 403 0048 BB68     	 ldr r3,[r7,#8]
 404 004a 002B     	 cmp r3,#0
 405 004c 07D0     	 beq .L21
 207:../Dave/Generated/RTC/rtc.c ****   {
 208:../Dave/Generated/RTC/rtc.c ****     XMC_RTC_EnableEvent(regval);
 406              	 .loc 4 208 0
 407 004e B868     	 ldr r0,[r7,#8]
 408 0050 FFF7FEFF 	 bl XMC_RTC_EnableEvent
 209:../Dave/Generated/RTC/rtc.c ****     #if ((UC_FAMILY == XMC4) && (RTC_INTERRUPT_ENABLED == 1))
 210:../Dave/Generated/RTC/rtc.c ****       GLOBAL_SCU_XMC4_EnableEvent(GLOBAL_SCU_XMC4_EVENT_RTC_PERIODIC);
 409              	 .loc 4 210 0
 410 0054 0220     	 movs r0,#2
 411 0056 FFF7FEFF 	 bl GLOBAL_SCU_XMC4_EnableEvent
 211:../Dave/Generated/RTC/rtc.c ****     #endif
 212:../Dave/Generated/RTC/rtc.c ****     interrupt_configured = true;
 412              	 .loc 4 212 0
 413 005a 0123     	 movs r3,#1
 414 005c FB73     	 strb r3,[r7,#15]
 415              	.L21:
 213:../Dave/Generated/RTC/rtc.c ****   }
 214:../Dave/Generated/RTC/rtc.c **** 
 215:../Dave/Generated/RTC/rtc.c ****     #ifdef RTC_EVENT_TRIG_TO_SCU
 216:../Dave/Generated/RTC/rtc.c ****       if (handler->config->alarm_intr == RTC_INT_ALARM_ENABLE)
 416              	 .loc 4 216 0
 417 005e 7B68     	 ldr r3,[r7,#4]
 418 0060 5B68     	 ldr r3,[r3,#4]
 419 0062 1B7A     	 ldrb r3,[r3,#8]
 420 0064 012B     	 cmp r3,#1
 421 0066 08D1     	 bne .L22
 217:../Dave/Generated/RTC/rtc.c ****       {
 218:../Dave/Generated/RTC/rtc.c ****         XMC_RTC_EnableEvent(XMC_RTC_EVENT_ALARM);
 422              	 .loc 4 218 0
 423 0068 4FF48070 	 mov r0,#256
 424 006c FFF7FEFF 	 bl XMC_RTC_EnableEvent
 219:../Dave/Generated/RTC/rtc.c ****         #if ((UC_FAMILY == XMC4) && (RTC_INTERRUPT_ENABLED == 1))
 220:../Dave/Generated/RTC/rtc.c ****           GLOBAL_SCU_XMC4_EnableEvent(GLOBAL_SCU_XMC4_EVENT_RTC_ALARM);
 425              	 .loc 4 220 0
 426 0070 0420     	 movs r0,#4
 427 0072 FFF7FEFF 	 bl GLOBAL_SCU_XMC4_EnableEvent
 221:../Dave/Generated/RTC/rtc.c ****         #endif
 222:../Dave/Generated/RTC/rtc.c ****         interrupt_configured = true;
 428              	 .loc 4 222 0
 429 0076 0123     	 movs r3,#1
 430 0078 FB73     	 strb r3,[r7,#15]
 431              	.L22:
 223:../Dave/Generated/RTC/rtc.c ****       }
 224:../Dave/Generated/RTC/rtc.c ****     #endif
 225:../Dave/Generated/RTC/rtc.c **** 
 226:../Dave/Generated/RTC/rtc.c ****   return (interrupt_configured);
 432              	 .loc 4 226 0
 433 007a FB7B     	 ldrb r3,[r7,#15]
 227:../Dave/Generated/RTC/rtc.c **** }
 434              	 .loc 4 227 0
 435 007c 1846     	 mov r0,r3
 436 007e 1037     	 adds r7,r7,#16
 437              	.LCFI25:
 438              	 .cfi_def_cfa_offset 8
 439 0080 BD46     	 mov sp,r7
 440              	.LCFI26:
 441              	 .cfi_def_cfa_register 13
 442              	 
 443 0082 80BD     	 pop {r7,pc}
 444              	 .cfi_endproc
 445              	.LFE163:
 447              	 .section .text.RTC_lRegister_Callbacks,"ax",%progbits
 448              	 .align 2
 449              	 .global RTC_lRegister_Callbacks
 450              	 .thumb
 451              	 .thumb_func
 453              	RTC_lRegister_Callbacks:
 454              	.LFB164:
 228:../Dave/Generated/RTC/rtc.c **** 
 229:../Dave/Generated/RTC/rtc.c **** /*
 230:../Dave/Generated/RTC/rtc.c ****  *  Interface to register the RTC call backs
 231:../Dave/Generated/RTC/rtc.c ****  */
 232:../Dave/Generated/RTC/rtc.c **** XMC_RTC_STATUS_t RTC_lRegister_Callbacks(RTC_t *const handler)
 233:../Dave/Generated/RTC/rtc.c **** {
 455              	 .loc 4 233 0
 456              	 .cfi_startproc
 457              	 
 458              	 
 459 0000 80B5     	 push {r7,lr}
 460              	.LCFI27:
 461              	 .cfi_def_cfa_offset 8
 462              	 .cfi_offset 7,-8
 463              	 .cfi_offset 14,-4
 464 0002 84B0     	 sub sp,sp,#16
 465              	.LCFI28:
 466              	 .cfi_def_cfa_offset 24
 467 0004 00AF     	 add r7,sp,#0
 468              	.LCFI29:
 469              	 .cfi_def_cfa_register 7
 470 0006 7860     	 str r0,[r7,#4]
 234:../Dave/Generated/RTC/rtc.c ****   XMC_RTC_STATUS_t pi_status;
 235:../Dave/Generated/RTC/rtc.c ****   XMC_RTC_STATUS_t ai_status;
 236:../Dave/Generated/RTC/rtc.c **** 
 237:../Dave/Generated/RTC/rtc.c ****   pi_status = XMC_RTC_STATUS_OK;
 471              	 .loc 4 237 0
 472 0008 0023     	 movs r3,#0
 473 000a BB73     	 strb r3,[r7,#14]
 238:../Dave/Generated/RTC/rtc.c ****   ai_status = XMC_RTC_STATUS_OK;
 474              	 .loc 4 238 0
 475 000c 0023     	 movs r3,#0
 476 000e FB73     	 strb r3,[r7,#15]
 239:../Dave/Generated/RTC/rtc.c **** 
 240:../Dave/Generated/RTC/rtc.c **** #if (RTC_INTERRUPT_ENABLED == 1)
 241:../Dave/Generated/RTC/rtc.c ****   #if (UC_FAMILY == XMC4)
 242:../Dave/Generated/RTC/rtc.c ****     pi_status = (XMC_RTC_STATUS_t)GLOBAL_SCU_XMC4_RegisterCallback(GLOBAL_SCU_XMC4_EVENT_RTC_PERIOD
 243:../Dave/Generated/RTC/rtc.c ****                                                                    handler->config->pi_listener);
 477              	 .loc 4 243 0
 478 0010 7B68     	 ldr r3,[r7,#4]
 479 0012 5B68     	 ldr r3,[r3,#4]
 242:../Dave/Generated/RTC/rtc.c ****                                                                    handler->config->pi_listener);
 480              	 .loc 4 242 0
 481 0014 DB68     	 ldr r3,[r3,#12]
 482 0016 0220     	 movs r0,#2
 483 0018 1946     	 mov r1,r3
 484 001a FFF7FEFF 	 bl GLOBAL_SCU_XMC4_RegisterCallback
 485 001e 0346     	 mov r3,r0
 486 0020 BB73     	 strb r3,[r7,#14]
 244:../Dave/Generated/RTC/rtc.c ****     if (handler->config->alarm_intr == RTC_INT_ALARM_ENABLE)
 487              	 .loc 4 244 0
 488 0022 7B68     	 ldr r3,[r7,#4]
 489 0024 5B68     	 ldr r3,[r3,#4]
 490 0026 1B7A     	 ldrb r3,[r3,#8]
 491 0028 012B     	 cmp r3,#1
 492 002a 08D1     	 bne .L25
 245:../Dave/Generated/RTC/rtc.c ****     {
 246:../Dave/Generated/RTC/rtc.c ****       ai_status = (XMC_RTC_STATUS_t)GLOBAL_SCU_XMC4_RegisterCallback(GLOBAL_SCU_XMC4_EVENT_RTC_ALAR
 247:../Dave/Generated/RTC/rtc.c ****                                                                      handler->config->ai_listener);
 493              	 .loc 4 247 0
 494 002c 7B68     	 ldr r3,[r7,#4]
 495 002e 5B68     	 ldr r3,[r3,#4]
 246:../Dave/Generated/RTC/rtc.c ****                                                                      handler->config->ai_listener);
 496              	 .loc 4 246 0
 497 0030 1B69     	 ldr r3,[r3,#16]
 498 0032 0420     	 movs r0,#4
 499 0034 1946     	 mov r1,r3
 500 0036 FFF7FEFF 	 bl GLOBAL_SCU_XMC4_RegisterCallback
 501 003a 0346     	 mov r3,r0
 502 003c FB73     	 strb r3,[r7,#15]
 503              	.L25:
 248:../Dave/Generated/RTC/rtc.c ****     }
 249:../Dave/Generated/RTC/rtc.c ****   #else
 250:../Dave/Generated/RTC/rtc.c ****     pi_status = (XMC_RTC_STATUS_t)GLOBAL_SCU_XMC1_RegisterCallback(GLOBAL_SCU_XMC1_EVENT_RTC_PERIOD
 251:../Dave/Generated/RTC/rtc.c ****                                                                    handler->config->pi_listener);
 252:../Dave/Generated/RTC/rtc.c **** 
 253:../Dave/Generated/RTC/rtc.c ****     if (handler->config->alarm_intr == RTC_INT_ALARM_ENABLE)
 254:../Dave/Generated/RTC/rtc.c ****     {
 255:../Dave/Generated/RTC/rtc.c ****       ai_status = (XMC_RTC_STATUS_t)GLOBAL_SCU_XMC1_RegisterCallback(GLOBAL_SCU_XMC1_EVENT_RTC_ALAR
 256:../Dave/Generated/RTC/rtc.c ****                                                                      handler->config->ai_listener);
 257:../Dave/Generated/RTC/rtc.c ****     }
 258:../Dave/Generated/RTC/rtc.c ****   #endif
 259:../Dave/Generated/RTC/rtc.c **** #endif
 260:../Dave/Generated/RTC/rtc.c **** 
 261:../Dave/Generated/RTC/rtc.c ****   return (XMC_RTC_STATUS_t)(pi_status & ai_status);
 504              	 .loc 4 261 0
 505 003e BA7B     	 ldrb r2,[r7,#14]
 506 0040 FB7B     	 ldrb r3,[r7,#15]
 507 0042 1340     	 ands r3,r3,r2
 508 0044 DBB2     	 uxtb r3,r3
 262:../Dave/Generated/RTC/rtc.c **** }
 509              	 .loc 4 262 0
 510 0046 1846     	 mov r0,r3
 511 0048 1037     	 adds r7,r7,#16
 512              	.LCFI30:
 513              	 .cfi_def_cfa_offset 8
 514 004a BD46     	 mov sp,r7
 515              	.LCFI31:
 516              	 .cfi_def_cfa_register 13
 517              	 
 518 004c 80BD     	 pop {r7,pc}
 519              	 .cfi_endproc
 520              	.LFE164:
 522 004e 00BF     	 .section .text.RTC_SetTime,"ax",%progbits
 523              	 .align 2
 524              	 .global RTC_SetTime
 525              	 .thumb
 526              	 .thumb_func
 528              	RTC_SetTime:
 529              	.LFB165:
 263:../Dave/Generated/RTC/rtc.c **** 
 264:../Dave/Generated/RTC/rtc.c **** /*
 265:../Dave/Generated/RTC/rtc.c ****  *  This function is used to set RTC time.
 266:../Dave/Generated/RTC/rtc.c ****  */
 267:../Dave/Generated/RTC/rtc.c **** RTC_STATUS_t RTC_SetTime(XMC_RTC_TIME_t *current_time)
 268:../Dave/Generated/RTC/rtc.c **** {
 530              	 .loc 4 268 0
 531              	 .cfi_startproc
 532              	 
 533              	 
 534 0000 80B5     	 push {r7,lr}
 535              	.LCFI32:
 536              	 .cfi_def_cfa_offset 8
 537              	 .cfi_offset 7,-8
 538              	 .cfi_offset 14,-4
 539 0002 86B0     	 sub sp,sp,#24
 540              	.LCFI33:
 541              	 .cfi_def_cfa_offset 32
 542 0004 00AF     	 add r7,sp,#0
 543              	.LCFI34:
 544              	 .cfi_def_cfa_register 7
 545 0006 7860     	 str r0,[r7,#4]
 269:../Dave/Generated/RTC/rtc.c ****   RTC_STATUS_t status = RTC_STATUS_SUCCESS;
 546              	 .loc 4 269 0
 547 0008 0023     	 movs r3,#0
 548 000a FB75     	 strb r3,[r7,#23]
 270:../Dave/Generated/RTC/rtc.c ****   XMC_RTC_TIME_t time_val;
 271:../Dave/Generated/RTC/rtc.c **** 
 272:../Dave/Generated/RTC/rtc.c ****   XMC_ASSERT("RTC_SetTime: NULL pointer", current_time != NULL);
 273:../Dave/Generated/RTC/rtc.c **** 
 274:../Dave/Generated/RTC/rtc.c ****   /* copy to local structure to keep data safe */
 275:../Dave/Generated/RTC/rtc.c ****   time_val.year = current_time->year;
 549              	 .loc 4 275 0
 550 000c 7B68     	 ldr r3,[r7,#4]
 551 000e DB88     	 ldrh r3,[r3,#6]
 552 0010 7B82     	 strh r3,[r7,#18]
 276:../Dave/Generated/RTC/rtc.c ****   time_val.month = current_time->month;
 553              	 .loc 4 276 0
 554 0012 7B68     	 ldr r3,[r7,#4]
 555 0014 5B79     	 ldrb r3,[r3,#5]
 556 0016 C3F30303 	 ubfx r3,r3,#0,#4
 557 001a DAB2     	 uxtb r2,r3
 558 001c 7B7C     	 ldrb r3,[r7,#17]
 559 001e 62F30303 	 bfi r3,r2,#0,#4
 560 0022 7B74     	 strb r3,[r7,#17]
 277:../Dave/Generated/RTC/rtc.c ****   time_val.days = current_time->days;
 561              	 .loc 4 277 0
 562 0024 7B68     	 ldr r3,[r7,#4]
 563 0026 DB78     	 ldrb r3,[r3,#3]
 564 0028 C3F30403 	 ubfx r3,r3,#0,#5
 565 002c DAB2     	 uxtb r2,r3
 566 002e FB7B     	 ldrb r3,[r7,#15]
 567 0030 62F30403 	 bfi r3,r2,#0,#5
 568 0034 FB73     	 strb r3,[r7,#15]
 278:../Dave/Generated/RTC/rtc.c ****   time_val.hours = current_time->hours;
 569              	 .loc 4 278 0
 570 0036 7B68     	 ldr r3,[r7,#4]
 571 0038 9B78     	 ldrb r3,[r3,#2]
 572 003a C3F30403 	 ubfx r3,r3,#0,#5
 573 003e DAB2     	 uxtb r2,r3
 574 0040 BB7B     	 ldrb r3,[r7,#14]
 575 0042 62F30403 	 bfi r3,r2,#0,#5
 576 0046 BB73     	 strb r3,[r7,#14]
 279:../Dave/Generated/RTC/rtc.c ****   time_val.minutes = current_time->minutes;
 577              	 .loc 4 279 0
 578 0048 7B68     	 ldr r3,[r7,#4]
 579 004a 5B78     	 ldrb r3,[r3,#1]
 580 004c C3F30503 	 ubfx r3,r3,#0,#6
 581 0050 DAB2     	 uxtb r2,r3
 582 0052 7B7B     	 ldrb r3,[r7,#13]
 583 0054 62F30503 	 bfi r3,r2,#0,#6
 584 0058 7B73     	 strb r3,[r7,#13]
 280:../Dave/Generated/RTC/rtc.c ****   time_val.seconds = current_time->seconds;
 585              	 .loc 4 280 0
 586 005a 7B68     	 ldr r3,[r7,#4]
 587 005c 1B78     	 ldrb r3,[r3]
 588 005e C3F30503 	 ubfx r3,r3,#0,#6
 589 0062 DAB2     	 uxtb r2,r3
 590 0064 3B7B     	 ldrb r3,[r7,#12]
 591 0066 62F30503 	 bfi r3,r2,#0,#6
 592 006a 3B73     	 strb r3,[r7,#12]
 281:../Dave/Generated/RTC/rtc.c **** 
 282:../Dave/Generated/RTC/rtc.c ****   if ((time_val.days != 0U) && (time_val.month != 0U))
 593              	 .loc 4 282 0
 594 006c FB7B     	 ldrb r3,[r7,#15]
 595 006e 03F01F03 	 and r3,r3,#31
 596 0072 DBB2     	 uxtb r3,r3
 597 0074 002B     	 cmp r3,#0
 598 0076 25D0     	 beq .L28
 599              	 .loc 4 282 0 is_stmt 0 discriminator 1
 600 0078 7B7C     	 ldrb r3,[r7,#17]
 601 007a 03F00F03 	 and r3,r3,#15
 602 007e DBB2     	 uxtb r3,r3
 603 0080 002B     	 cmp r3,#0
 604 0082 1FD0     	 beq .L28
 283:../Dave/Generated/RTC/rtc.c ****   {
 284:../Dave/Generated/RTC/rtc.c ****     time_val.days = time_val.days - 1U;
 605              	 .loc 4 284 0 is_stmt 1
 606 0084 FB7B     	 ldrb r3,[r7,#15]
 607 0086 C3F30403 	 ubfx r3,r3,#0,#5
 608 008a DBB2     	 uxtb r3,r3
 609 008c 013B     	 subs r3,r3,#1
 610 008e DBB2     	 uxtb r3,r3
 611 0090 03F01F03 	 and r3,r3,#31
 612 0094 DAB2     	 uxtb r2,r3
 613 0096 FB7B     	 ldrb r3,[r7,#15]
 614 0098 62F30403 	 bfi r3,r2,#0,#5
 615 009c FB73     	 strb r3,[r7,#15]
 285:../Dave/Generated/RTC/rtc.c ****     time_val.month = time_val.month - 1U;
 616              	 .loc 4 285 0
 617 009e 7B7C     	 ldrb r3,[r7,#17]
 618 00a0 C3F30303 	 ubfx r3,r3,#0,#4
 619 00a4 DBB2     	 uxtb r3,r3
 620 00a6 013B     	 subs r3,r3,#1
 621 00a8 DBB2     	 uxtb r3,r3
 622 00aa 03F00F03 	 and r3,r3,#15
 623 00ae DAB2     	 uxtb r2,r3
 624 00b0 7B7C     	 ldrb r3,[r7,#17]
 625 00b2 62F30303 	 bfi r3,r2,#0,#4
 626 00b6 7B74     	 strb r3,[r7,#17]
 286:../Dave/Generated/RTC/rtc.c **** 
 287:../Dave/Generated/RTC/rtc.c ****     XMC_RTC_SetTime(&time_val);
 627              	 .loc 4 287 0
 628 00b8 07F10C03 	 add r3,r7,#12
 629 00bc 1846     	 mov r0,r3
 630 00be FFF7FEFF 	 bl XMC_RTC_SetTime
 631 00c2 01E0     	 b .L29
 632              	.L28:
 288:../Dave/Generated/RTC/rtc.c ****   }
 289:../Dave/Generated/RTC/rtc.c ****   else
 290:../Dave/Generated/RTC/rtc.c ****   {
 291:../Dave/Generated/RTC/rtc.c ****     status = RTC_STATUS_FAILURE;
 633              	 .loc 4 291 0
 634 00c4 0123     	 movs r3,#1
 635 00c6 FB75     	 strb r3,[r7,#23]
 636              	.L29:
 292:../Dave/Generated/RTC/rtc.c ****   }
 293:../Dave/Generated/RTC/rtc.c **** 
 294:../Dave/Generated/RTC/rtc.c ****   return (status);
 637              	 .loc 4 294 0
 638 00c8 FB7D     	 ldrb r3,[r7,#23]
 295:../Dave/Generated/RTC/rtc.c **** }
 639              	 .loc 4 295 0
 640 00ca 1846     	 mov r0,r3
 641 00cc 1837     	 adds r7,r7,#24
 642              	.LCFI35:
 643              	 .cfi_def_cfa_offset 8
 644 00ce BD46     	 mov sp,r7
 645              	.LCFI36:
 646              	 .cfi_def_cfa_register 13
 647              	 
 648 00d0 80BD     	 pop {r7,pc}
 649              	 .cfi_endproc
 650              	.LFE165:
 652 00d2 00BF     	 .section .text.RTC_GetTime,"ax",%progbits
 653              	 .align 2
 654              	 .global RTC_GetTime
 655              	 .thumb
 656              	 .thumb_func
 658              	RTC_GetTime:
 659              	.LFB166:
 296:../Dave/Generated/RTC/rtc.c **** 
 297:../Dave/Generated/RTC/rtc.c **** /*
 298:../Dave/Generated/RTC/rtc.c ****  *  This function is used to get RTC time.
 299:../Dave/Generated/RTC/rtc.c ****  */
 300:../Dave/Generated/RTC/rtc.c **** void RTC_GetTime(XMC_RTC_TIME_t *current_time)
 301:../Dave/Generated/RTC/rtc.c **** {
 660              	 .loc 4 301 0
 661              	 .cfi_startproc
 662              	 
 663              	 
 664 0000 80B5     	 push {r7,lr}
 665              	.LCFI37:
 666              	 .cfi_def_cfa_offset 8
 667              	 .cfi_offset 7,-8
 668              	 .cfi_offset 14,-4
 669 0002 82B0     	 sub sp,sp,#8
 670              	.LCFI38:
 671              	 .cfi_def_cfa_offset 16
 672 0004 00AF     	 add r7,sp,#0
 673              	.LCFI39:
 674              	 .cfi_def_cfa_register 7
 675 0006 7860     	 str r0,[r7,#4]
 302:../Dave/Generated/RTC/rtc.c ****   XMC_ASSERT("RTC_GetTime: NULL pointer", current_time != NULL);
 303:../Dave/Generated/RTC/rtc.c **** 
 304:../Dave/Generated/RTC/rtc.c ****   XMC_RTC_GetTime(current_time);
 676              	 .loc 4 304 0
 677 0008 7868     	 ldr r0,[r7,#4]
 678 000a FFF7FEFF 	 bl XMC_RTC_GetTime
 305:../Dave/Generated/RTC/rtc.c **** 
 306:../Dave/Generated/RTC/rtc.c ****   current_time->days = current_time->days + 1U;
 679              	 .loc 4 306 0
 680 000e 7B68     	 ldr r3,[r7,#4]
 681 0010 DB78     	 ldrb r3,[r3,#3]
 682 0012 C3F30403 	 ubfx r3,r3,#0,#5
 683 0016 DBB2     	 uxtb r3,r3
 684 0018 0133     	 adds r3,r3,#1
 685 001a DBB2     	 uxtb r3,r3
 686 001c 03F01F03 	 and r3,r3,#31
 687 0020 D9B2     	 uxtb r1,r3
 688 0022 7A68     	 ldr r2,[r7,#4]
 689 0024 D378     	 ldrb r3,[r2,#3]
 690 0026 61F30403 	 bfi r3,r1,#0,#5
 691 002a D370     	 strb r3,[r2,#3]
 307:../Dave/Generated/RTC/rtc.c ****   current_time->month = current_time->month + 1U;
 692              	 .loc 4 307 0
 693 002c 7B68     	 ldr r3,[r7,#4]
 694 002e 5B79     	 ldrb r3,[r3,#5]
 695 0030 C3F30303 	 ubfx r3,r3,#0,#4
 696 0034 DBB2     	 uxtb r3,r3
 697 0036 0133     	 adds r3,r3,#1
 698 0038 DBB2     	 uxtb r3,r3
 699 003a 03F00F03 	 and r3,r3,#15
 700 003e D9B2     	 uxtb r1,r3
 701 0040 7A68     	 ldr r2,[r7,#4]
 702 0042 5379     	 ldrb r3,[r2,#5]
 703 0044 61F30303 	 bfi r3,r1,#0,#4
 704 0048 5371     	 strb r3,[r2,#5]
 308:../Dave/Generated/RTC/rtc.c **** }
 705              	 .loc 4 308 0
 706 004a 0837     	 adds r7,r7,#8
 707              	.LCFI40:
 708              	 .cfi_def_cfa_offset 8
 709 004c BD46     	 mov sp,r7
 710              	.LCFI41:
 711              	 .cfi_def_cfa_register 13
 712              	 
 713 004e 80BD     	 pop {r7,pc}
 714              	 .cfi_endproc
 715              	.LFE166:
 717              	 .section .text.RTC_SetAlarmTime,"ax",%progbits
 718              	 .align 2
 719              	 .global RTC_SetAlarmTime
 720              	 .thumb
 721              	 .thumb_func
 723              	RTC_SetAlarmTime:
 724              	.LFB167:
 309:../Dave/Generated/RTC/rtc.c **** 
 310:../Dave/Generated/RTC/rtc.c **** /*
 311:../Dave/Generated/RTC/rtc.c ****  *  This function is used to set Alarm time.
 312:../Dave/Generated/RTC/rtc.c ****  */
 313:../Dave/Generated/RTC/rtc.c **** RTC_STATUS_t RTC_SetAlarmTime(XMC_RTC_ALARM_t *alarm)
 314:../Dave/Generated/RTC/rtc.c **** {
 725              	 .loc 4 314 0
 726              	 .cfi_startproc
 727              	 
 728              	 
 729 0000 80B5     	 push {r7,lr}
 730              	.LCFI42:
 731              	 .cfi_def_cfa_offset 8
 732              	 .cfi_offset 7,-8
 733              	 .cfi_offset 14,-4
 734 0002 86B0     	 sub sp,sp,#24
 735              	.LCFI43:
 736              	 .cfi_def_cfa_offset 32
 737 0004 00AF     	 add r7,sp,#0
 738              	.LCFI44:
 739              	 .cfi_def_cfa_register 7
 740 0006 7860     	 str r0,[r7,#4]
 315:../Dave/Generated/RTC/rtc.c ****   RTC_STATUS_t status = RTC_STATUS_SUCCESS;
 741              	 .loc 4 315 0
 742 0008 0023     	 movs r3,#0
 743 000a FB75     	 strb r3,[r7,#23]
 316:../Dave/Generated/RTC/rtc.c ****   XMC_RTC_ALARM_t alarm_val;
 317:../Dave/Generated/RTC/rtc.c **** 
 318:../Dave/Generated/RTC/rtc.c ****   XMC_ASSERT("RTC_SetAlarmTime: NULL pointer", alarm != NULL);
 319:../Dave/Generated/RTC/rtc.c **** 
 320:../Dave/Generated/RTC/rtc.c ****   /* copy to local structure to keep data safe */
 321:../Dave/Generated/RTC/rtc.c ****   alarm_val.year = alarm->year;
 744              	 .loc 4 321 0
 745 000c 7B68     	 ldr r3,[r7,#4]
 746 000e DB88     	 ldrh r3,[r3,#6]
 747 0010 7B82     	 strh r3,[r7,#18]
 322:../Dave/Generated/RTC/rtc.c ****   alarm_val.month = alarm->month;
 748              	 .loc 4 322 0
 749 0012 7B68     	 ldr r3,[r7,#4]
 750 0014 5B79     	 ldrb r3,[r3,#5]
 751 0016 C3F30303 	 ubfx r3,r3,#0,#4
 752 001a DAB2     	 uxtb r2,r3
 753 001c 7B7C     	 ldrb r3,[r7,#17]
 754 001e 62F30303 	 bfi r3,r2,#0,#4
 755 0022 7B74     	 strb r3,[r7,#17]
 323:../Dave/Generated/RTC/rtc.c ****   alarm_val.days = alarm->days;
 756              	 .loc 4 323 0
 757 0024 7B68     	 ldr r3,[r7,#4]
 758 0026 DB78     	 ldrb r3,[r3,#3]
 759 0028 C3F30403 	 ubfx r3,r3,#0,#5
 760 002c DAB2     	 uxtb r2,r3
 761 002e FB7B     	 ldrb r3,[r7,#15]
 762 0030 62F30403 	 bfi r3,r2,#0,#5
 763 0034 FB73     	 strb r3,[r7,#15]
 324:../Dave/Generated/RTC/rtc.c ****   alarm_val.hours = alarm->hours;
 764              	 .loc 4 324 0
 765 0036 7B68     	 ldr r3,[r7,#4]
 766 0038 9B78     	 ldrb r3,[r3,#2]
 767 003a C3F30403 	 ubfx r3,r3,#0,#5
 768 003e DAB2     	 uxtb r2,r3
 769 0040 BB7B     	 ldrb r3,[r7,#14]
 770 0042 62F30403 	 bfi r3,r2,#0,#5
 771 0046 BB73     	 strb r3,[r7,#14]
 325:../Dave/Generated/RTC/rtc.c ****   alarm_val.minutes = alarm->minutes;
 772              	 .loc 4 325 0
 773 0048 7B68     	 ldr r3,[r7,#4]
 774 004a 5B78     	 ldrb r3,[r3,#1]
 775 004c C3F30503 	 ubfx r3,r3,#0,#6
 776 0050 DAB2     	 uxtb r2,r3
 777 0052 7B7B     	 ldrb r3,[r7,#13]
 778 0054 62F30503 	 bfi r3,r2,#0,#6
 779 0058 7B73     	 strb r3,[r7,#13]
 326:../Dave/Generated/RTC/rtc.c ****   alarm_val.seconds = alarm->seconds;
 780              	 .loc 4 326 0
 781 005a 7B68     	 ldr r3,[r7,#4]
 782 005c 1B78     	 ldrb r3,[r3]
 783 005e C3F30503 	 ubfx r3,r3,#0,#6
 784 0062 DAB2     	 uxtb r2,r3
 785 0064 3B7B     	 ldrb r3,[r7,#12]
 786 0066 62F30503 	 bfi r3,r2,#0,#6
 787 006a 3B73     	 strb r3,[r7,#12]
 327:../Dave/Generated/RTC/rtc.c **** 
 328:../Dave/Generated/RTC/rtc.c ****   if ((alarm_val.days != 0U) && (alarm_val.month != 0U))
 788              	 .loc 4 328 0
 789 006c FB7B     	 ldrb r3,[r7,#15]
 790 006e 03F01F03 	 and r3,r3,#31
 791 0072 DBB2     	 uxtb r3,r3
 792 0074 002B     	 cmp r3,#0
 793 0076 25D0     	 beq .L33
 794              	 .loc 4 328 0 is_stmt 0 discriminator 1
 795 0078 7B7C     	 ldrb r3,[r7,#17]
 796 007a 03F00F03 	 and r3,r3,#15
 797 007e DBB2     	 uxtb r3,r3
 798 0080 002B     	 cmp r3,#0
 799 0082 1FD0     	 beq .L33
 329:../Dave/Generated/RTC/rtc.c ****   {
 330:../Dave/Generated/RTC/rtc.c ****     alarm_val.days = alarm_val.days - 1U;
 800              	 .loc 4 330 0 is_stmt 1
 801 0084 FB7B     	 ldrb r3,[r7,#15]
 802 0086 C3F30403 	 ubfx r3,r3,#0,#5
 803 008a DBB2     	 uxtb r3,r3
 804 008c 013B     	 subs r3,r3,#1
 805 008e DBB2     	 uxtb r3,r3
 806 0090 03F01F03 	 and r3,r3,#31
 807 0094 DAB2     	 uxtb r2,r3
 808 0096 FB7B     	 ldrb r3,[r7,#15]
 809 0098 62F30403 	 bfi r3,r2,#0,#5
 810 009c FB73     	 strb r3,[r7,#15]
 331:../Dave/Generated/RTC/rtc.c ****     alarm_val.month = alarm_val.month - 1U;
 811              	 .loc 4 331 0
 812 009e 7B7C     	 ldrb r3,[r7,#17]
 813 00a0 C3F30303 	 ubfx r3,r3,#0,#4
 814 00a4 DBB2     	 uxtb r3,r3
 815 00a6 013B     	 subs r3,r3,#1
 816 00a8 DBB2     	 uxtb r3,r3
 817 00aa 03F00F03 	 and r3,r3,#15
 818 00ae DAB2     	 uxtb r2,r3
 819 00b0 7B7C     	 ldrb r3,[r7,#17]
 820 00b2 62F30303 	 bfi r3,r2,#0,#4
 821 00b6 7B74     	 strb r3,[r7,#17]
 332:../Dave/Generated/RTC/rtc.c **** 
 333:../Dave/Generated/RTC/rtc.c ****     XMC_RTC_SetAlarm(&alarm_val);
 822              	 .loc 4 333 0
 823 00b8 07F10C03 	 add r3,r7,#12
 824 00bc 1846     	 mov r0,r3
 825 00be FFF7FEFF 	 bl XMC_RTC_SetAlarm
 826 00c2 01E0     	 b .L34
 827              	.L33:
 334:../Dave/Generated/RTC/rtc.c ****   }
 335:../Dave/Generated/RTC/rtc.c ****   else
 336:../Dave/Generated/RTC/rtc.c ****   {
 337:../Dave/Generated/RTC/rtc.c ****     status = RTC_STATUS_FAILURE;
 828              	 .loc 4 337 0
 829 00c4 0123     	 movs r3,#1
 830 00c6 FB75     	 strb r3,[r7,#23]
 831              	.L34:
 338:../Dave/Generated/RTC/rtc.c ****   }
 339:../Dave/Generated/RTC/rtc.c **** 
 340:../Dave/Generated/RTC/rtc.c ****   return (status);
 832              	 .loc 4 340 0
 833 00c8 FB7D     	 ldrb r3,[r7,#23]
 341:../Dave/Generated/RTC/rtc.c **** }
 834              	 .loc 4 341 0
 835 00ca 1846     	 mov r0,r3
 836 00cc 1837     	 adds r7,r7,#24
 837              	.LCFI45:
 838              	 .cfi_def_cfa_offset 8
 839 00ce BD46     	 mov sp,r7
 840              	.LCFI46:
 841              	 .cfi_def_cfa_register 13
 842              	 
 843 00d0 80BD     	 pop {r7,pc}
 844              	 .cfi_endproc
 845              	.LFE167:
 847 00d2 00BF     	 .section .text.RTC_GetAlarmTime,"ax",%progbits
 848              	 .align 2
 849              	 .global RTC_GetAlarmTime
 850              	 .thumb
 851              	 .thumb_func
 853              	RTC_GetAlarmTime:
 854              	.LFB168:
 342:../Dave/Generated/RTC/rtc.c **** 
 343:../Dave/Generated/RTC/rtc.c **** /*
 344:../Dave/Generated/RTC/rtc.c ****  *  This function is used to get Alarm time from XMC.
 345:../Dave/Generated/RTC/rtc.c ****  *  And returns in standard time format.
 346:../Dave/Generated/RTC/rtc.c ****  */
 347:../Dave/Generated/RTC/rtc.c **** void RTC_GetAlarmTime(XMC_RTC_ALARM_t *alarm)
 348:../Dave/Generated/RTC/rtc.c **** {
 855              	 .loc 4 348 0
 856              	 .cfi_startproc
 857              	 
 858              	 
 859 0000 80B5     	 push {r7,lr}
 860              	.LCFI47:
 861              	 .cfi_def_cfa_offset 8
 862              	 .cfi_offset 7,-8
 863              	 .cfi_offset 14,-4
 864 0002 82B0     	 sub sp,sp,#8
 865              	.LCFI48:
 866              	 .cfi_def_cfa_offset 16
 867 0004 00AF     	 add r7,sp,#0
 868              	.LCFI49:
 869              	 .cfi_def_cfa_register 7
 870 0006 7860     	 str r0,[r7,#4]
 349:../Dave/Generated/RTC/rtc.c ****   XMC_ASSERT("RTC_GetAlarmTime: NULL pointer", alarm != NULL);
 350:../Dave/Generated/RTC/rtc.c **** 
 351:../Dave/Generated/RTC/rtc.c ****   XMC_RTC_GetAlarm(alarm);
 871              	 .loc 4 351 0
 872 0008 7868     	 ldr r0,[r7,#4]
 873 000a FFF7FEFF 	 bl XMC_RTC_GetAlarm
 352:../Dave/Generated/RTC/rtc.c **** 
 353:../Dave/Generated/RTC/rtc.c ****   alarm->days = alarm->days + 1U;
 874              	 .loc 4 353 0
 875 000e 7B68     	 ldr r3,[r7,#4]
 876 0010 DB78     	 ldrb r3,[r3,#3]
 877 0012 C3F30403 	 ubfx r3,r3,#0,#5
 878 0016 DBB2     	 uxtb r3,r3
 879 0018 0133     	 adds r3,r3,#1
 880 001a DBB2     	 uxtb r3,r3
 881 001c 03F01F03 	 and r3,r3,#31
 882 0020 D9B2     	 uxtb r1,r3
 883 0022 7A68     	 ldr r2,[r7,#4]
 884 0024 D378     	 ldrb r3,[r2,#3]
 885 0026 61F30403 	 bfi r3,r1,#0,#5
 886 002a D370     	 strb r3,[r2,#3]
 354:../Dave/Generated/RTC/rtc.c ****   alarm->month = alarm->month + 1U;
 887              	 .loc 4 354 0
 888 002c 7B68     	 ldr r3,[r7,#4]
 889 002e 5B79     	 ldrb r3,[r3,#5]
 890 0030 C3F30303 	 ubfx r3,r3,#0,#4
 891 0034 DBB2     	 uxtb r3,r3
 892 0036 0133     	 adds r3,r3,#1
 893 0038 DBB2     	 uxtb r3,r3
 894 003a 03F00F03 	 and r3,r3,#15
 895 003e D9B2     	 uxtb r1,r3
 896 0040 7A68     	 ldr r2,[r7,#4]
 897 0042 5379     	 ldrb r3,[r2,#5]
 898 0044 61F30303 	 bfi r3,r1,#0,#4
 899 0048 5371     	 strb r3,[r2,#5]
 355:../Dave/Generated/RTC/rtc.c **** }
 900              	 .loc 4 355 0
 901 004a 0837     	 adds r7,r7,#8
 902              	.LCFI50:
 903              	 .cfi_def_cfa_offset 8
 904 004c BD46     	 mov sp,r7
 905              	.LCFI51:
 906              	 .cfi_def_cfa_register 13
 907              	 
 908 004e 80BD     	 pop {r7,pc}
 909              	 .cfi_endproc
 910              	.LFE168:
 912              	 .section .text.RTC_GetFlagStatus,"ax",%progbits
 913              	 .align 2
 914              	 .global RTC_GetFlagStatus
 915              	 .thumb
 916              	 .thumb_func
 918              	RTC_GetFlagStatus:
 919              	.LFB169:
 356:../Dave/Generated/RTC/rtc.c **** 
 357:../Dave/Generated/RTC/rtc.c **** /*
 358:../Dave/Generated/RTC/rtc.c ****  *  This function is used to get event status.
 359:../Dave/Generated/RTC/rtc.c ****  */
 360:../Dave/Generated/RTC/rtc.c **** uint32_t RTC_GetFlagStatus(void)
 361:../Dave/Generated/RTC/rtc.c **** {
 920              	 .loc 4 361 0
 921              	 .cfi_startproc
 922              	 
 923              	 
 924 0000 80B5     	 push {r7,lr}
 925              	.LCFI52:
 926              	 .cfi_def_cfa_offset 8
 927              	 .cfi_offset 7,-8
 928              	 .cfi_offset 14,-4
 929 0002 82B0     	 sub sp,sp,#8
 930              	.LCFI53:
 931              	 .cfi_def_cfa_offset 16
 932 0004 00AF     	 add r7,sp,#0
 933              	.LCFI54:
 934              	 .cfi_def_cfa_register 7
 362:../Dave/Generated/RTC/rtc.c ****   uint32_t event_status;
 363:../Dave/Generated/RTC/rtc.c **** 
 364:../Dave/Generated/RTC/rtc.c ****   event_status = XMC_RTC_GetEventStatus();
 935              	 .loc 4 364 0
 936 0006 FFF7FEFF 	 bl XMC_RTC_GetEventStatus
 937 000a 7860     	 str r0,[r7,#4]
 365:../Dave/Generated/RTC/rtc.c **** 
 366:../Dave/Generated/RTC/rtc.c ****   return (event_status);
 938              	 .loc 4 366 0
 939 000c 7B68     	 ldr r3,[r7,#4]
 367:../Dave/Generated/RTC/rtc.c **** }
 940              	 .loc 4 367 0
 941 000e 1846     	 mov r0,r3
 942 0010 0837     	 adds r7,r7,#8
 943              	.LCFI55:
 944              	 .cfi_def_cfa_offset 8
 945 0012 BD46     	 mov sp,r7
 946              	.LCFI56:
 947              	 .cfi_def_cfa_register 13
 948              	 
 949 0014 80BD     	 pop {r7,pc}
 950              	 .cfi_endproc
 951              	.LFE169:
 953 0016 00BF     	 .section .text.RTC_Time,"ax",%progbits
 954              	 .align 2
 955              	 .global RTC_Time
 956              	 .thumb
 957              	 .thumb_func
 959              	RTC_Time:
 960              	.LFB170:
 368:../Dave/Generated/RTC/rtc.c **** 
 369:../Dave/Generated/RTC/rtc.c **** /*
 370:../Dave/Generated/RTC/rtc.c ****  *  This function is to get the time in seconds calculated from Epoch time
 371:../Dave/Generated/RTC/rtc.c ****  *  (01/01/1970).
 372:../Dave/Generated/RTC/rtc.c ****  */
 373:../Dave/Generated/RTC/rtc.c **** RTC_STATUS_t RTC_Time(time_t* time_value)
 374:../Dave/Generated/RTC/rtc.c **** {
 961              	 .loc 4 374 0
 962              	 .cfi_startproc
 963              	 
 964              	 
 965 0000 80B5     	 push {r7,lr}
 966              	.LCFI57:
 967              	 .cfi_def_cfa_offset 8
 968              	 .cfi_offset 7,-8
 969              	 .cfi_offset 14,-4
 970 0002 8AB0     	 sub sp,sp,#40
 971              	.LCFI58:
 972              	 .cfi_def_cfa_offset 48
 973 0004 00AF     	 add r7,sp,#0
 974              	.LCFI59:
 975              	 .cfi_def_cfa_register 7
 976 0006 7860     	 str r0,[r7,#4]
 375:../Dave/Generated/RTC/rtc.c ****   uint32_t elapsedyear;
 376:../Dave/Generated/RTC/rtc.c ****   uint32_t elapsedmonth;
 377:../Dave/Generated/RTC/rtc.c ****   uint32_t elapseddays;
 378:../Dave/Generated/RTC/rtc.c ****   uint32_t elapsedseconds;
 379:../Dave/Generated/RTC/rtc.c **** 
 380:../Dave/Generated/RTC/rtc.c ****   RTC_STATUS_t status;
 381:../Dave/Generated/RTC/rtc.c ****   XMC_RTC_TIME_t curr_time;
 382:../Dave/Generated/RTC/rtc.c ****   
 383:../Dave/Generated/RTC/rtc.c ****   XMC_ASSERT("RTC_Time: NULL pointer", time_value != NULL);
 384:../Dave/Generated/RTC/rtc.c **** 
 385:../Dave/Generated/RTC/rtc.c ****   /*Check if RTC module is enabled and no NULL pointer*/
 386:../Dave/Generated/RTC/rtc.c ****   if (true == XMC_RTC_IsRunning())
 977              	 .loc 4 386 0
 978 0008 FFF7FEFF 	 bl XMC_RTC_IsRunning
 979 000c 0346     	 mov r3,r0
 980 000e 002B     	 cmp r3,#0
 981 0010 7ED0     	 beq .L40
 387:../Dave/Generated/RTC/rtc.c ****   {
 388:../Dave/Generated/RTC/rtc.c ****     /* Read values from TIM0 and TIM1 registers */
 389:../Dave/Generated/RTC/rtc.c ****     XMC_RTC_GetTime(&curr_time);
 982              	 .loc 4 389 0
 983 0012 07F10C03 	 add r3,r7,#12
 984 0016 1846     	 mov r0,r3
 985 0018 FFF7FEFF 	 bl XMC_RTC_GetTime
 390:../Dave/Generated/RTC/rtc.c **** 
 391:../Dave/Generated/RTC/rtc.c ****     /*Count number of Days for Elapsed Years since Epoch*/
 392:../Dave/Generated/RTC/rtc.c ****     elapseddays = (curr_time.year - RTC_EPOCH_YEAR) * RTC_DAYS_IN_AN_YEAR;
 986              	 .loc 4 392 0
 987 001c 7B8A     	 ldrh r3,[r7,#18]
 988 001e 1A46     	 mov r2,r3
 989 0020 40F26D13 	 movw r3,#365
 990 0024 03FB02F3 	 mul r3,r3,r2
 991 0028 A3F52F23 	 sub r3,r3,#716800
 992 002c A3F6CA03 	 subw r3,r3,#2250
 993 0030 FB61     	 str r3,[r7,#28]
 393:../Dave/Generated/RTC/rtc.c **** 
 394:../Dave/Generated/RTC/rtc.c ****     /* Add the number of days to be adjusted for leap years,
 395:../Dave/Generated/RTC/rtc.c ****        start from previous year and check backward */
 396:../Dave/Generated/RTC/rtc.c ****     for (elapsedyear = (curr_time.year - 1); elapsedyear>= 1970; elapsedyear--)
 994              	 .loc 4 396 0
 995 0032 7B8A     	 ldrh r3,[r7,#18]
 996 0034 013B     	 subs r3,r3,#1
 997 0036 7B62     	 str r3,[r7,#36]
 998 0038 0DE0     	 b .L41
 999              	.L43:
 397:../Dave/Generated/RTC/rtc.c ****     {
 398:../Dave/Generated/RTC/rtc.c ****       if (RTC_lleapyear((uint16_t)elapsedyear))
 1000              	 .loc 4 398 0
 1001 003a 7B6A     	 ldr r3,[r7,#36]
 1002 003c 9BB2     	 uxth r3,r3
 1003 003e 1846     	 mov r0,r3
 1004 0040 FFF7FEFF 	 bl RTC_lleapyear
 1005 0044 0346     	 mov r3,r0
 1006 0046 002B     	 cmp r3,#0
 1007 0048 02D0     	 beq .L42
 399:../Dave/Generated/RTC/rtc.c ****       {
 400:../Dave/Generated/RTC/rtc.c ****         elapseddays++;
 1008              	 .loc 4 400 0
 1009 004a FB69     	 ldr r3,[r7,#28]
 1010 004c 0133     	 adds r3,r3,#1
 1011 004e FB61     	 str r3,[r7,#28]
 1012              	.L42:
 396:../Dave/Generated/RTC/rtc.c ****     {
 1013              	 .loc 4 396 0 discriminator 2
 1014 0050 7B6A     	 ldr r3,[r7,#36]
 1015 0052 013B     	 subs r3,r3,#1
 1016 0054 7B62     	 str r3,[r7,#36]
 1017              	.L41:
 396:../Dave/Generated/RTC/rtc.c ****     {
 1018              	 .loc 4 396 0 is_stmt 0 discriminator 1
 1019 0056 7B6A     	 ldr r3,[r7,#36]
 1020 0058 40F2B172 	 movw r2,#1969
 1021 005c 9342     	 cmp r3,r2
 1022 005e ECD8     	 bhi .L43
 401:../Dave/Generated/RTC/rtc.c ****       }
 402:../Dave/Generated/RTC/rtc.c ****     }
 403:../Dave/Generated/RTC/rtc.c ****     /*If current year is leap year add 1 only if March or later*/
 404:../Dave/Generated/RTC/rtc.c ****     if (RTC_lleapyear(curr_time.year))
 1023              	 .loc 4 404 0 is_stmt 1
 1024 0060 7B8A     	 ldrh r3,[r7,#18]
 1025 0062 1846     	 mov r0,r3
 1026 0064 FFF7FEFF 	 bl RTC_lleapyear
 1027 0068 0346     	 mov r3,r0
 1028 006a 002B     	 cmp r3,#0
 1029 006c 08D0     	 beq .L44
 405:../Dave/Generated/RTC/rtc.c ****     {
 406:../Dave/Generated/RTC/rtc.c ****       if(curr_time.month > 2U)
 1030              	 .loc 4 406 0
 1031 006e 7B7C     	 ldrb r3,[r7,#17]
 1032 0070 C3F30303 	 ubfx r3,r3,#0,#4
 1033 0074 DBB2     	 uxtb r3,r3
 1034 0076 022B     	 cmp r3,#2
 1035 0078 02D9     	 bls .L44
 407:../Dave/Generated/RTC/rtc.c ****       {
 408:../Dave/Generated/RTC/rtc.c ****         elapseddays++;
 1036              	 .loc 4 408 0
 1037 007a FB69     	 ldr r3,[r7,#28]
 1038 007c 0133     	 adds r3,r3,#1
 1039 007e FB61     	 str r3,[r7,#28]
 1040              	.L44:
 409:../Dave/Generated/RTC/rtc.c ****       }
 410:../Dave/Generated/RTC/rtc.c ****     }
 411:../Dave/Generated/RTC/rtc.c **** 
 412:../Dave/Generated/RTC/rtc.c ****     /*Add number of Days from Elapsed months from current year*/
 413:../Dave/Generated/RTC/rtc.c ****     for (elapsedmonth = (curr_time.month); elapsedmonth != 0U; elapsedmonth--)
 1041              	 .loc 4 413 0
 1042 0080 7B7C     	 ldrb r3,[r7,#17]
 1043 0082 C3F30303 	 ubfx r3,r3,#0,#4
 1044 0086 DBB2     	 uxtb r3,r3
 1045 0088 3B62     	 str r3,[r7,#32]
 1046 008a 0AE0     	 b .L45
 1047              	.L46:
 414:../Dave/Generated/RTC/rtc.c ****     {
 415:../Dave/Generated/RTC/rtc.c ****       elapseddays += RTC_DAYS_IN_MONTH[elapsedmonth];
 1048              	 .loc 4 415 0 discriminator 3
 1049 008c 244A     	 ldr r2,.L49
 1050 008e 3B6A     	 ldr r3,[r7,#32]
 1051 0090 52F82330 	 ldr r3,[r2,r3,lsl#2]
 1052 0094 1A46     	 mov r2,r3
 1053 0096 FB69     	 ldr r3,[r7,#28]
 1054 0098 1344     	 add r3,r3,r2
 1055 009a FB61     	 str r3,[r7,#28]
 413:../Dave/Generated/RTC/rtc.c ****     {
 1056              	 .loc 4 413 0 discriminator 3
 1057 009c 3B6A     	 ldr r3,[r7,#32]
 1058 009e 013B     	 subs r3,r3,#1
 1059 00a0 3B62     	 str r3,[r7,#32]
 1060              	.L45:
 413:../Dave/Generated/RTC/rtc.c ****     {
 1061              	 .loc 4 413 0 is_stmt 0 discriminator 1
 1062 00a2 3B6A     	 ldr r3,[r7,#32]
 1063 00a4 002B     	 cmp r3,#0
 1064 00a6 F1D1     	 bne .L46
 416:../Dave/Generated/RTC/rtc.c ****     }
 417:../Dave/Generated/RTC/rtc.c **** 
 418:../Dave/Generated/RTC/rtc.c ****     /*Add Elapsed days from current month*/
 419:../Dave/Generated/RTC/rtc.c ****     elapseddays += curr_time.days;
 1065              	 .loc 4 419 0 is_stmt 1
 1066 00a8 FB7B     	 ldrb r3,[r7,#15]
 1067 00aa C3F30403 	 ubfx r3,r3,#0,#5
 1068 00ae DBB2     	 uxtb r3,r3
 1069 00b0 1A46     	 mov r2,r3
 1070 00b2 FB69     	 ldr r3,[r7,#28]
 1071 00b4 1344     	 add r3,r3,r2
 1072 00b6 FB61     	 str r3,[r7,#28]
 420:../Dave/Generated/RTC/rtc.c **** 
 421:../Dave/Generated/RTC/rtc.c ****     /*Accumulate the total seconds for ElapsedDays*/
 422:../Dave/Generated/RTC/rtc.c ****     elapsedseconds = (elapseddays * RTC_SECONDS_IN_A_DAY);
 1073              	 .loc 4 422 0
 1074 00b8 FB69     	 ldr r3,[r7,#28]
 1075 00ba 1A4A     	 ldr r2,.L49+4
 1076 00bc 02FB03F3 	 mul r3,r2,r3
 1077 00c0 7B61     	 str r3,[r7,#20]
 423:../Dave/Generated/RTC/rtc.c **** 
 424:../Dave/Generated/RTC/rtc.c ****     /*Add seconds for current hour, minute and seconds*/
 425:../Dave/Generated/RTC/rtc.c ****     elapsedseconds += (curr_time.hours * RTC_SECONDS_IN_AN_HOUR);
 1078              	 .loc 4 425 0
 1079 00c2 BB7B     	 ldrb r3,[r7,#14]
 1080 00c4 C3F30403 	 ubfx r3,r3,#0,#5
 1081 00c8 DBB2     	 uxtb r3,r3
 1082 00ca 1A46     	 mov r2,r3
 1083 00cc 4FF46163 	 mov r3,#3600
 1084 00d0 03FB02F3 	 mul r3,r3,r2
 1085 00d4 7A69     	 ldr r2,[r7,#20]
 1086 00d6 1344     	 add r3,r3,r2
 1087 00d8 7B61     	 str r3,[r7,#20]
 426:../Dave/Generated/RTC/rtc.c ****     elapsedseconds += (curr_time.minutes * RTC_SECONDS_IN_A_MINUTE);
 1088              	 .loc 4 426 0
 1089 00da 7B7B     	 ldrb r3,[r7,#13]
 1090 00dc C3F30503 	 ubfx r3,r3,#0,#6
 1091 00e0 DBB2     	 uxtb r3,r3
 1092 00e2 1A46     	 mov r2,r3
 1093 00e4 1346     	 mov r3,r2
 1094 00e6 1B01     	 lsls r3,r3,#4
 1095 00e8 9B1A     	 subs r3,r3,r2
 1096 00ea 9B00     	 lsls r3,r3,#2
 1097 00ec 1A46     	 mov r2,r3
 1098 00ee 7B69     	 ldr r3,[r7,#20]
 1099 00f0 1344     	 add r3,r3,r2
 1100 00f2 7B61     	 str r3,[r7,#20]
 427:../Dave/Generated/RTC/rtc.c ****     elapsedseconds += curr_time.seconds;
 1101              	 .loc 4 427 0
 1102 00f4 3B7B     	 ldrb r3,[r7,#12]
 1103 00f6 C3F30503 	 ubfx r3,r3,#0,#6
 1104 00fa DBB2     	 uxtb r3,r3
 1105 00fc 1A46     	 mov r2,r3
 1106 00fe 7B69     	 ldr r3,[r7,#20]
 1107 0100 1344     	 add r3,r3,r2
 1108 0102 7B61     	 str r3,[r7,#20]
 428:../Dave/Generated/RTC/rtc.c **** 
 429:../Dave/Generated/RTC/rtc.c ****     *time_value = (time_t)elapsedseconds;
 1109              	 .loc 4 429 0
 1110 0104 7A69     	 ldr r2,[r7,#20]
 1111 0106 7B68     	 ldr r3,[r7,#4]
 1112 0108 1A60     	 str r2,[r3]
 430:../Dave/Generated/RTC/rtc.c ****      status = RTC_STATUS_SUCCESS;
 1113              	 .loc 4 430 0
 1114 010a 0023     	 movs r3,#0
 1115 010c FB76     	 strb r3,[r7,#27]
 1116 010e 01E0     	 b .L47
 1117              	.L40:
 431:../Dave/Generated/RTC/rtc.c ****   }
 432:../Dave/Generated/RTC/rtc.c ****   else
 433:../Dave/Generated/RTC/rtc.c ****   {
 434:../Dave/Generated/RTC/rtc.c ****     status = RTC_STATUS_FAILURE;
 1118              	 .loc 4 434 0
 1119 0110 0123     	 movs r3,#1
 1120 0112 FB76     	 strb r3,[r7,#27]
 1121              	.L47:
 435:../Dave/Generated/RTC/rtc.c ****   }
 436:../Dave/Generated/RTC/rtc.c ****   return (status);
 1122              	 .loc 4 436 0
 1123 0114 FB7E     	 ldrb r3,[r7,#27]
 437:../Dave/Generated/RTC/rtc.c **** }
 1124              	 .loc 4 437 0
 1125 0116 1846     	 mov r0,r3
 1126 0118 2837     	 adds r7,r7,#40
 1127              	.LCFI60:
 1128              	 .cfi_def_cfa_offset 8
 1129 011a BD46     	 mov sp,r7
 1130              	.LCFI61:
 1131              	 .cfi_def_cfa_register 13
 1132              	 
 1133 011c 80BD     	 pop {r7,pc}
 1134              	.L50:
 1135 011e 00BF     	 .align 2
 1136              	.L49:
 1137 0120 00000000 	 .word RTC_DAYS_IN_MONTH
 1138 0124 80510100 	 .word 86400
 1139              	 .cfi_endproc
 1140              	.LFE170:
 1142              	 .section .text.RTC_lleapyear,"ax",%progbits
 1143              	 .align 2
 1144              	 .global RTC_lleapyear
 1145              	 .thumb
 1146              	 .thumb_func
 1148              	RTC_lleapyear:
 1149              	.LFB171:
 438:../Dave/Generated/RTC/rtc.c **** 	
 439:../Dave/Generated/RTC/rtc.c **** /* This function returns 1 if it is leap year otherwise 0.*/
 440:../Dave/Generated/RTC/rtc.c **** uint8_t RTC_lleapyear(uint16_t year)
 441:../Dave/Generated/RTC/rtc.c **** {
 1150              	 .loc 4 441 0
 1151              	 .cfi_startproc
 1152              	 
 1153              	 
 1154              	 
 1155 0000 80B4     	 push {r7}
 1156              	.LCFI62:
 1157              	 .cfi_def_cfa_offset 4
 1158              	 .cfi_offset 7,-4
 1159 0002 85B0     	 sub sp,sp,#20
 1160              	.LCFI63:
 1161              	 .cfi_def_cfa_offset 24
 1162 0004 00AF     	 add r7,sp,#0
 1163              	.LCFI64:
 1164              	 .cfi_def_cfa_register 7
 1165 0006 0346     	 mov r3,r0
 1166 0008 FB80     	 strh r3,[r7,#6]
 442:../Dave/Generated/RTC/rtc.c ****   uint8_t valid = 0U;
 1167              	 .loc 4 442 0
 1168 000a 0023     	 movs r3,#0
 1169 000c FB73     	 strb r3,[r7,#15]
 443:../Dave/Generated/RTC/rtc.c **** 
 444:../Dave/Generated/RTC/rtc.c ****   if ((((year) % 400U) == 0U) || ((((year) % 100U) != 0U) &&
 1170              	 .loc 4 444 0
 1171 000e FB88     	 ldrh r3,[r7,#6]
 1172 0010 134A     	 ldr r2,.L55
 1173 0012 A2FB0312 	 umull r1,r2,r2,r3
 1174 0016 D209     	 lsrs r2,r2,#7
 1175 0018 4FF4C871 	 mov r1,#400
 1176 001c 01FB02F2 	 mul r2,r1,r2
 1177 0020 9B1A     	 subs r3,r3,r2
 1178 0022 9BB2     	 uxth r3,r3
 1179 0024 002B     	 cmp r3,#0
 1180 0026 11D0     	 beq .L52
 1181              	 .loc 4 444 0 is_stmt 0 discriminator 1
 1182 0028 FB88     	 ldrh r3,[r7,#6]
 1183 002a 0D4A     	 ldr r2,.L55
 1184 002c A2FB0312 	 umull r1,r2,r2,r3
 1185 0030 5209     	 lsrs r2,r2,#5
 1186 0032 6421     	 movs r1,#100
 1187 0034 01FB02F2 	 mul r2,r1,r2
 1188 0038 9B1A     	 subs r3,r3,r2
 1189 003a 9BB2     	 uxth r3,r3
 1190 003c 002B     	 cmp r3,#0
 1191 003e 07D0     	 beq .L53
 445:../Dave/Generated/RTC/rtc.c ****        (((year) %4U) == 0U)))
 1192              	 .loc 4 445 0 is_stmt 1 discriminator 2
 1193 0040 FB88     	 ldrh r3,[r7,#6]
 1194 0042 03F00303 	 and r3,r3,#3
 1195 0046 9BB2     	 uxth r3,r3
 444:../Dave/Generated/RTC/rtc.c ****        (((year) %4U) == 0U)))
 1196              	 .loc 4 444 0 discriminator 2
 1197 0048 002B     	 cmp r3,#0
 1198 004a 01D1     	 bne .L53
 1199              	.L52:
 446:../Dave/Generated/RTC/rtc.c ****   {
 447:../Dave/Generated/RTC/rtc.c ****     valid = 1U;
 1200              	 .loc 4 447 0
 1201 004c 0123     	 movs r3,#1
 1202 004e FB73     	 strb r3,[r7,#15]
 1203              	.L53:
 448:../Dave/Generated/RTC/rtc.c ****   }
 449:../Dave/Generated/RTC/rtc.c ****   return (valid);
 1204              	 .loc 4 449 0
 1205 0050 FB7B     	 ldrb r3,[r7,#15]
 450:../Dave/Generated/RTC/rtc.c **** }
 1206              	 .loc 4 450 0
 1207 0052 1846     	 mov r0,r3
 1208 0054 1437     	 adds r7,r7,#20
 1209              	.LCFI65:
 1210              	 .cfi_def_cfa_offset 4
 1211 0056 BD46     	 mov sp,r7
 1212              	.LCFI66:
 1213              	 .cfi_def_cfa_register 13
 1214              	 
 1215 0058 5DF8047B 	 ldr r7,[sp],#4
 1216              	.LCFI67:
 1217              	 .cfi_restore 7
 1218              	 .cfi_def_cfa_offset 0
 1219 005c 7047     	 bx lr
 1220              	.L56:
 1221 005e 00BF     	 .align 2
 1222              	.L55:
 1223 0060 1F85EB51 	 .word 1374389535
 1224              	 .cfi_endproc
 1225              	.LFE171:
 1227              	 .text
 1228              	.Letext0:
 1229              	 .file 5 "c:\\davev4-64bit\\dave-ide-4.4.2-64bit\\eclipse\\arm-gcc-49\\arm-none-eabi\\include\\machine\\_default_types.h"
 1230              	 .file 6 "c:\\davev4-64bit\\dave-ide-4.4.2-64bit\\eclipse\\arm-gcc-49\\arm-none-eabi\\include\\stdint.h"
 1231              	 .file 7 "C:/Workspaces/DAVE-4.4.2-64Bit/fh-kaernten/DAVE_M2M_1/XMC4500_MTSR_Start_002/Libraries/CMSIS/Infineon/XMC4500_series/Include/XMC4500.h"
 1232              	 .file 8 "C:/Workspaces/DAVE-4.4.2-64Bit/fh-kaernten/DAVE_M2M_1/XMC4500_MTSR_Start_002/Libraries/XMCLib/inc/xmc_scu.h"
 1233              	 .file 9 "C:/Workspaces/DAVE-4.4.2-64Bit/fh-kaernten/DAVE_M2M_1/XMC4500_MTSR_Start_002/Libraries/XMCLib/inc/xmc4_scu.h"
 1234              	 .file 10 "c:\\davev4-64bit\\dave-ide-4.4.2-64bit\\eclipse\\arm-gcc-49\\arm-none-eabi\\include\\sys\\types.h"
 1235              	 .file 11 "C:/Workspaces/DAVE-4.4.2-64Bit/fh-kaernten/DAVE_M2M_1/XMC4500_MTSR_Start_002/Dave/Generated/DAVE_Common.h"
 1236              	 .file 12 "C:/Workspaces/DAVE-4.4.2-64Bit/fh-kaernten/DAVE_M2M_1/XMC4500_MTSR_Start_002/Libraries/CMSIS/Include/core_cm4.h"
 1237              	 .file 13 "C:/Workspaces/DAVE-4.4.2-64Bit/fh-kaernten/DAVE_M2M_1/XMC4500_MTSR_Start_002/Libraries/CMSIS/Infineon/XMC4500_series/Include/system_XMC4500.h"
 1238              	 .file 14 "C:/Workspaces/DAVE-4.4.2-64Bit/fh-kaernten/DAVE_M2M_1/XMC4500_MTSR_Start_002/Dave/Generated/GLOBAL_SCU_XMC4/global_scu_xmc4_extern.h"